
;CodeVisionAVR C Compiler V2.05.0 Professional
;(C) Copyright 1998-2010 Pavel Haiduc, HP InfoTech s.r.l.
;http://www.hpinfotech.com

;Chip type                : ATmega328P
;Program type             : Application
;Clock frequency          : 16,000000 MHz
;Memory model             : Small
;Optimize for             : Size
;(s)printf features       : int, width
;(s)scanf features        : int, width
;External RAM size        : 0
;Data Stack size          : 512 byte(s)
;Heap size                : 0 byte(s)
;Promote 'char' to 'int'  : Yes
;'char' is unsigned       : Yes
;8 bit enums              : Yes
;global 'const' stored in FLASH: No
;Enhanced core instructions    : On
;Smart register allocation     : On
;Automatic register allocation : On

	#pragma AVRPART ADMIN PART_NAME ATmega328P
	#pragma AVRPART MEMORY PROG_FLASH 32768
	#pragma AVRPART MEMORY EEPROM 1024
	#pragma AVRPART MEMORY INT_SRAM SIZE 2303
	#pragma AVRPART MEMORY INT_SRAM START_ADDR 0x100

	#define CALL_SUPPORTED 1

	.LISTMAC
	.EQU EERE=0x0
	.EQU EEWE=0x1
	.EQU EEMWE=0x2
	.EQU UDRE=0x5
	.EQU RXC=0x7
	.EQU EECR=0x1F
	.EQU EEDR=0x20
	.EQU EEARL=0x21
	.EQU EEARH=0x22
	.EQU SPSR=0x2D
	.EQU SPDR=0x2E
	.EQU SMCR=0x33
	.EQU MCUSR=0x34
	.EQU MCUCR=0x35
	.EQU WDTCSR=0x60
	.EQU UCSR0A=0xC0
	.EQU UDR0=0xC6
	.EQU SPL=0x3D
	.EQU SPH=0x3E
	.EQU SREG=0x3F
	.EQU GPIOR0=0x1E

	.DEF R0X0=R0
	.DEF R0X1=R1
	.DEF R0X2=R2
	.DEF R0X3=R3
	.DEF R0X4=R4
	.DEF R0X5=R5
	.DEF R0X6=R6
	.DEF R0X7=R7
	.DEF R0X8=R8
	.DEF R0X9=R9
	.DEF R0XA=R10
	.DEF R0XB=R11
	.DEF R0XC=R12
	.DEF R0XD=R13
	.DEF R0XE=R14
	.DEF R0XF=R15
	.DEF R0X10=R16
	.DEF R0X11=R17
	.DEF R0X12=R18
	.DEF R0X13=R19
	.DEF R0X14=R20
	.DEF R0X15=R21
	.DEF R0X16=R22
	.DEF R0X17=R23
	.DEF R0X18=R24
	.DEF R0X19=R25
	.DEF R0X1A=R26
	.DEF R0X1B=R27
	.DEF R0X1C=R28
	.DEF R0X1D=R29
	.DEF R0X1E=R30
	.DEF R0X1F=R31

	.EQU __SRAM_START=0x0100
	.EQU __SRAM_END=0x08FF
	.EQU __DSTACK_SIZE=0x0200
	.EQU __HEAP_SIZE=0x0000
	.EQU __CLEAR_SRAM_SIZE=__SRAM_END-__SRAM_START+1

	.MACRO __CPD1N
	CPI  R30,LOW(@0)
	LDI  R26,HIGH(@0)
	CPC  R31,R26
	LDI  R26,BYTE3(@0)
	CPC  R22,R26
	LDI  R26,BYTE4(@0)
	CPC  R23,R26
	.ENDM

	.MACRO __CPD2N
	CPI  R26,LOW(@0)
	LDI  R30,HIGH(@0)
	CPC  R27,R30
	LDI  R30,BYTE3(@0)
	CPC  R24,R30
	LDI  R30,BYTE4(@0)
	CPC  R25,R30
	.ENDM

	.MACRO __CPWRR
	CP   R@0,R@2
	CPC  R@1,R@3
	.ENDM

	.MACRO __CPWRN
	CPI  R@0,LOW(@2)
	LDI  R30,HIGH(@2)
	CPC  R@1,R30
	.ENDM

	.MACRO __ADDB1MN
	SUBI R30,LOW(-@0-(@1))
	.ENDM

	.MACRO __ADDB2MN
	SUBI R26,LOW(-@0-(@1))
	.ENDM

	.MACRO __ADDW1MN
	SUBI R30,LOW(-@0-(@1))
	SBCI R31,HIGH(-@0-(@1))
	.ENDM

	.MACRO __ADDW2MN
	SUBI R26,LOW(-@0-(@1))
	SBCI R27,HIGH(-@0-(@1))
	.ENDM

	.MACRO __ADDW1FN
	SUBI R30,LOW(-2*@0-(@1))
	SBCI R31,HIGH(-2*@0-(@1))
	.ENDM

	.MACRO __ADDD1FN
	SUBI R30,LOW(-2*@0-(@1))
	SBCI R31,HIGH(-2*@0-(@1))
	SBCI R22,BYTE3(-2*@0-(@1))
	.ENDM

	.MACRO __ADDD1N
	SUBI R30,LOW(-@0)
	SBCI R31,HIGH(-@0)
	SBCI R22,BYTE3(-@0)
	SBCI R23,BYTE4(-@0)
	.ENDM

	.MACRO __ADDD2N
	SUBI R26,LOW(-@0)
	SBCI R27,HIGH(-@0)
	SBCI R24,BYTE3(-@0)
	SBCI R25,BYTE4(-@0)
	.ENDM

	.MACRO __SUBD1N
	SUBI R30,LOW(@0)
	SBCI R31,HIGH(@0)
	SBCI R22,BYTE3(@0)
	SBCI R23,BYTE4(@0)
	.ENDM

	.MACRO __SUBD2N
	SUBI R26,LOW(@0)
	SBCI R27,HIGH(@0)
	SBCI R24,BYTE3(@0)
	SBCI R25,BYTE4(@0)
	.ENDM

	.MACRO __ANDBMNN
	LDS  R30,@0+(@1)
	ANDI R30,LOW(@2)
	STS  @0+(@1),R30
	.ENDM

	.MACRO __ANDWMNN
	LDS  R30,@0+(@1)
	ANDI R30,LOW(@2)
	STS  @0+(@1),R30
	LDS  R30,@0+(@1)+1
	ANDI R30,HIGH(@2)
	STS  @0+(@1)+1,R30
	.ENDM

	.MACRO __ANDD1N
	ANDI R30,LOW(@0)
	ANDI R31,HIGH(@0)
	ANDI R22,BYTE3(@0)
	ANDI R23,BYTE4(@0)
	.ENDM

	.MACRO __ANDD2N
	ANDI R26,LOW(@0)
	ANDI R27,HIGH(@0)
	ANDI R24,BYTE3(@0)
	ANDI R25,BYTE4(@0)
	.ENDM

	.MACRO __ORBMNN
	LDS  R30,@0+(@1)
	ORI  R30,LOW(@2)
	STS  @0+(@1),R30
	.ENDM

	.MACRO __ORWMNN
	LDS  R30,@0+(@1)
	ORI  R30,LOW(@2)
	STS  @0+(@1),R30
	LDS  R30,@0+(@1)+1
	ORI  R30,HIGH(@2)
	STS  @0+(@1)+1,R30
	.ENDM

	.MACRO __ORD1N
	ORI  R30,LOW(@0)
	ORI  R31,HIGH(@0)
	ORI  R22,BYTE3(@0)
	ORI  R23,BYTE4(@0)
	.ENDM

	.MACRO __ORD2N
	ORI  R26,LOW(@0)
	ORI  R27,HIGH(@0)
	ORI  R24,BYTE3(@0)
	ORI  R25,BYTE4(@0)
	.ENDM

	.MACRO __DELAY_USB
	LDI  R24,LOW(@0)
__DELAY_USB_LOOP:
	DEC  R24
	BRNE __DELAY_USB_LOOP
	.ENDM

	.MACRO __DELAY_USW
	LDI  R24,LOW(@0)
	LDI  R25,HIGH(@0)
__DELAY_USW_LOOP:
	SBIW R24,1
	BRNE __DELAY_USW_LOOP
	.ENDM

	.MACRO __GETD1S
	LDD  R30,Y+@0
	LDD  R31,Y+@0+1
	LDD  R22,Y+@0+2
	LDD  R23,Y+@0+3
	.ENDM

	.MACRO __GETD2S
	LDD  R26,Y+@0
	LDD  R27,Y+@0+1
	LDD  R24,Y+@0+2
	LDD  R25,Y+@0+3
	.ENDM

	.MACRO __PUTD1S
	STD  Y+@0,R30
	STD  Y+@0+1,R31
	STD  Y+@0+2,R22
	STD  Y+@0+3,R23
	.ENDM

	.MACRO __PUTD2S
	STD  Y+@0,R26
	STD  Y+@0+1,R27
	STD  Y+@0+2,R24
	STD  Y+@0+3,R25
	.ENDM

	.MACRO __PUTDZ2
	STD  Z+@0,R26
	STD  Z+@0+1,R27
	STD  Z+@0+2,R24
	STD  Z+@0+3,R25
	.ENDM

	.MACRO __CLRD1S
	STD  Y+@0,R30
	STD  Y+@0+1,R30
	STD  Y+@0+2,R30
	STD  Y+@0+3,R30
	.ENDM

	.MACRO __POINTB1MN
	LDI  R30,LOW(@0+(@1))
	.ENDM

	.MACRO __POINTW1MN
	LDI  R30,LOW(@0+(@1))
	LDI  R31,HIGH(@0+(@1))
	.ENDM

	.MACRO __POINTD1M
	LDI  R30,LOW(@0)
	LDI  R31,HIGH(@0)
	LDI  R22,BYTE3(@0)
	LDI  R23,BYTE4(@0)
	.ENDM

	.MACRO __POINTW1FN
	LDI  R30,LOW(2*@0+(@1))
	LDI  R31,HIGH(2*@0+(@1))
	.ENDM

	.MACRO __POINTD1FN
	LDI  R30,LOW(2*@0+(@1))
	LDI  R31,HIGH(2*@0+(@1))
	LDI  R22,BYTE3(2*@0+(@1))
	LDI  R23,BYTE4(2*@0+(@1))
	.ENDM

	.MACRO __POINTB2MN
	LDI  R26,LOW(@0+(@1))
	.ENDM

	.MACRO __POINTW2MN
	LDI  R26,LOW(@0+(@1))
	LDI  R27,HIGH(@0+(@1))
	.ENDM

	.MACRO __POINTBRM
	LDI  R@0,LOW(@1)
	.ENDM

	.MACRO __POINTWRM
	LDI  R@0,LOW(@2)
	LDI  R@1,HIGH(@2)
	.ENDM

	.MACRO __POINTBRMN
	LDI  R@0,LOW(@1+(@2))
	.ENDM

	.MACRO __POINTWRMN
	LDI  R@0,LOW(@2+(@3))
	LDI  R@1,HIGH(@2+(@3))
	.ENDM

	.MACRO __POINTWRFN
	LDI  R@0,LOW(@2*2+(@3))
	LDI  R@1,HIGH(@2*2+(@3))
	.ENDM

	.MACRO __GETD1N
	LDI  R30,LOW(@0)
	LDI  R31,HIGH(@0)
	LDI  R22,BYTE3(@0)
	LDI  R23,BYTE4(@0)
	.ENDM

	.MACRO __GETD2N
	LDI  R26,LOW(@0)
	LDI  R27,HIGH(@0)
	LDI  R24,BYTE3(@0)
	LDI  R25,BYTE4(@0)
	.ENDM

	.MACRO __GETB1MN
	LDS  R30,@0+(@1)
	.ENDM

	.MACRO __GETB1HMN
	LDS  R31,@0+(@1)
	.ENDM

	.MACRO __GETW1MN
	LDS  R30,@0+(@1)
	LDS  R31,@0+(@1)+1
	.ENDM

	.MACRO __GETD1MN
	LDS  R30,@0+(@1)
	LDS  R31,@0+(@1)+1
	LDS  R22,@0+(@1)+2
	LDS  R23,@0+(@1)+3
	.ENDM

	.MACRO __GETBRMN
	LDS  R@0,@1+(@2)
	.ENDM

	.MACRO __GETWRMN
	LDS  R@0,@2+(@3)
	LDS  R@1,@2+(@3)+1
	.ENDM

	.MACRO __GETWRZ
	LDD  R@0,Z+@2
	LDD  R@1,Z+@2+1
	.ENDM

	.MACRO __GETD2Z
	LDD  R26,Z+@0
	LDD  R27,Z+@0+1
	LDD  R24,Z+@0+2
	LDD  R25,Z+@0+3
	.ENDM

	.MACRO __GETB2MN
	LDS  R26,@0+(@1)
	.ENDM

	.MACRO __GETW2MN
	LDS  R26,@0+(@1)
	LDS  R27,@0+(@1)+1
	.ENDM

	.MACRO __GETD2MN
	LDS  R26,@0+(@1)
	LDS  R27,@0+(@1)+1
	LDS  R24,@0+(@1)+2
	LDS  R25,@0+(@1)+3
	.ENDM

	.MACRO __PUTB1MN
	STS  @0+(@1),R30
	.ENDM

	.MACRO __PUTW1MN
	STS  @0+(@1),R30
	STS  @0+(@1)+1,R31
	.ENDM

	.MACRO __PUTD1MN
	STS  @0+(@1),R30
	STS  @0+(@1)+1,R31
	STS  @0+(@1)+2,R22
	STS  @0+(@1)+3,R23
	.ENDM

	.MACRO __PUTB1EN
	LDI  R26,LOW(@0+(@1))
	LDI  R27,HIGH(@0+(@1))
	CALL __EEPROMWRB
	.ENDM

	.MACRO __PUTW1EN
	LDI  R26,LOW(@0+(@1))
	LDI  R27,HIGH(@0+(@1))
	CALL __EEPROMWRW
	.ENDM

	.MACRO __PUTD1EN
	LDI  R26,LOW(@0+(@1))
	LDI  R27,HIGH(@0+(@1))
	CALL __EEPROMWRD
	.ENDM

	.MACRO __PUTBR0MN
	STS  @0+(@1),R0
	.ENDM

	.MACRO __PUTBMRN
	STS  @0+(@1),R@2
	.ENDM

	.MACRO __PUTWMRN
	STS  @0+(@1),R@2
	STS  @0+(@1)+1,R@3
	.ENDM

	.MACRO __PUTBZR
	STD  Z+@1,R@0
	.ENDM

	.MACRO __PUTWZR
	STD  Z+@2,R@0
	STD  Z+@2+1,R@1
	.ENDM

	.MACRO __GETW1R
	MOV  R30,R@0
	MOV  R31,R@1
	.ENDM

	.MACRO __GETW2R
	MOV  R26,R@0
	MOV  R27,R@1
	.ENDM

	.MACRO __GETWRN
	LDI  R@0,LOW(@2)
	LDI  R@1,HIGH(@2)
	.ENDM

	.MACRO __PUTW1R
	MOV  R@0,R30
	MOV  R@1,R31
	.ENDM

	.MACRO __PUTW2R
	MOV  R@0,R26
	MOV  R@1,R27
	.ENDM

	.MACRO __ADDWRN
	SUBI R@0,LOW(-@2)
	SBCI R@1,HIGH(-@2)
	.ENDM

	.MACRO __ADDWRR
	ADD  R@0,R@2
	ADC  R@1,R@3
	.ENDM

	.MACRO __SUBWRN
	SUBI R@0,LOW(@2)
	SBCI R@1,HIGH(@2)
	.ENDM

	.MACRO __SUBWRR
	SUB  R@0,R@2
	SBC  R@1,R@3
	.ENDM

	.MACRO __ANDWRN
	ANDI R@0,LOW(@2)
	ANDI R@1,HIGH(@2)
	.ENDM

	.MACRO __ANDWRR
	AND  R@0,R@2
	AND  R@1,R@3
	.ENDM

	.MACRO __ORWRN
	ORI  R@0,LOW(@2)
	ORI  R@1,HIGH(@2)
	.ENDM

	.MACRO __ORWRR
	OR   R@0,R@2
	OR   R@1,R@3
	.ENDM

	.MACRO __EORWRR
	EOR  R@0,R@2
	EOR  R@1,R@3
	.ENDM

	.MACRO __GETWRS
	LDD  R@0,Y+@2
	LDD  R@1,Y+@2+1
	.ENDM

	.MACRO __PUTBSR
	STD  Y+@1,R@0
	.ENDM

	.MACRO __PUTWSR
	STD  Y+@2,R@0
	STD  Y+@2+1,R@1
	.ENDM

	.MACRO __MOVEWRR
	MOV  R@0,R@2
	MOV  R@1,R@3
	.ENDM

	.MACRO __INWR
	IN   R@0,@2
	IN   R@1,@2+1
	.ENDM

	.MACRO __OUTWR
	OUT  @2+1,R@1
	OUT  @2,R@0
	.ENDM

	.MACRO __CALL1MN
	LDS  R30,@0+(@1)
	LDS  R31,@0+(@1)+1
	ICALL
	.ENDM

	.MACRO __CALL1FN
	LDI  R30,LOW(2*@0+(@1))
	LDI  R31,HIGH(2*@0+(@1))
	CALL __GETW1PF
	ICALL
	.ENDM

	.MACRO __CALL2EN
	LDI  R26,LOW(@0+(@1))
	LDI  R27,HIGH(@0+(@1))
	CALL __EEPROMRDW
	ICALL
	.ENDM

	.MACRO __GETW1STACK
	IN   R26,SPL
	IN   R27,SPH
	ADIW R26,@0+1
	LD   R30,X+
	LD   R31,X
	.ENDM

	.MACRO __GETD1STACK
	IN   R26,SPL
	IN   R27,SPH
	ADIW R26,@0+1
	LD   R30,X+
	LD   R31,X+
	LD   R22,X
	.ENDM

	.MACRO __NBST
	BST  R@0,@1
	IN   R30,SREG
	LDI  R31,0x40
	EOR  R30,R31
	OUT  SREG,R30
	.ENDM


	.MACRO __PUTB1SN
	LDD  R26,Y+@0
	LDD  R27,Y+@0+1
	SUBI R26,LOW(-@1)
	SBCI R27,HIGH(-@1)
	ST   X,R30
	.ENDM

	.MACRO __PUTW1SN
	LDD  R26,Y+@0
	LDD  R27,Y+@0+1
	SUBI R26,LOW(-@1)
	SBCI R27,HIGH(-@1)
	ST   X+,R30
	ST   X,R31
	.ENDM

	.MACRO __PUTD1SN
	LDD  R26,Y+@0
	LDD  R27,Y+@0+1
	SUBI R26,LOW(-@1)
	SBCI R27,HIGH(-@1)
	CALL __PUTDP1
	.ENDM

	.MACRO __PUTB1SNS
	LDD  R26,Y+@0
	LDD  R27,Y+@0+1
	ADIW R26,@1
	ST   X,R30
	.ENDM

	.MACRO __PUTW1SNS
	LDD  R26,Y+@0
	LDD  R27,Y+@0+1
	ADIW R26,@1
	ST   X+,R30
	ST   X,R31
	.ENDM

	.MACRO __PUTD1SNS
	LDD  R26,Y+@0
	LDD  R27,Y+@0+1
	ADIW R26,@1
	CALL __PUTDP1
	.ENDM

	.MACRO __PUTB1PMN
	LDS  R26,@0
	LDS  R27,@0+1
	SUBI R26,LOW(-@1)
	SBCI R27,HIGH(-@1)
	ST   X,R30
	.ENDM

	.MACRO __PUTW1PMN
	LDS  R26,@0
	LDS  R27,@0+1
	SUBI R26,LOW(-@1)
	SBCI R27,HIGH(-@1)
	ST   X+,R30
	ST   X,R31
	.ENDM

	.MACRO __PUTD1PMN
	LDS  R26,@0
	LDS  R27,@0+1
	SUBI R26,LOW(-@1)
	SBCI R27,HIGH(-@1)
	CALL __PUTDP1
	.ENDM

	.MACRO __PUTB1PMNS
	LDS  R26,@0
	LDS  R27,@0+1
	ADIW R26,@1
	ST   X,R30
	.ENDM

	.MACRO __PUTW1PMNS
	LDS  R26,@0
	LDS  R27,@0+1
	ADIW R26,@1
	ST   X+,R30
	ST   X,R31
	.ENDM

	.MACRO __PUTD1PMNS
	LDS  R26,@0
	LDS  R27,@0+1
	ADIW R26,@1
	CALL __PUTDP1
	.ENDM

	.MACRO __PUTB1RN
	MOVW R26,R@0
	SUBI R26,LOW(-@1)
	SBCI R27,HIGH(-@1)
	ST   X,R30
	.ENDM

	.MACRO __PUTW1RN
	MOVW R26,R@0
	SUBI R26,LOW(-@1)
	SBCI R27,HIGH(-@1)
	ST   X+,R30
	ST   X,R31
	.ENDM

	.MACRO __PUTD1RN
	MOVW R26,R@0
	SUBI R26,LOW(-@1)
	SBCI R27,HIGH(-@1)
	CALL __PUTDP1
	.ENDM

	.MACRO __PUTB1RNS
	MOVW R26,R@0
	ADIW R26,@1
	ST   X,R30
	.ENDM

	.MACRO __PUTW1RNS
	MOVW R26,R@0
	ADIW R26,@1
	ST   X+,R30
	ST   X,R31
	.ENDM

	.MACRO __PUTD1RNS
	MOVW R26,R@0
	ADIW R26,@1
	CALL __PUTDP1
	.ENDM

	.MACRO __PUTB1RON
	MOV  R26,R@0
	MOV  R27,R@1
	SUBI R26,LOW(-@2)
	SBCI R27,HIGH(-@2)
	ST   X,R30
	.ENDM

	.MACRO __PUTW1RON
	MOV  R26,R@0
	MOV  R27,R@1
	SUBI R26,LOW(-@2)
	SBCI R27,HIGH(-@2)
	ST   X+,R30
	ST   X,R31
	.ENDM

	.MACRO __PUTD1RON
	MOV  R26,R@0
	MOV  R27,R@1
	SUBI R26,LOW(-@2)
	SBCI R27,HIGH(-@2)
	CALL __PUTDP1
	.ENDM

	.MACRO __PUTB1RONS
	MOV  R26,R@0
	MOV  R27,R@1
	ADIW R26,@2
	ST   X,R30
	.ENDM

	.MACRO __PUTW1RONS
	MOV  R26,R@0
	MOV  R27,R@1
	ADIW R26,@2
	ST   X+,R30
	ST   X,R31
	.ENDM

	.MACRO __PUTD1RONS
	MOV  R26,R@0
	MOV  R27,R@1
	ADIW R26,@2
	CALL __PUTDP1
	.ENDM


	.MACRO __GETB1SX
	MOVW R30,R28
	SUBI R30,LOW(-@0)
	SBCI R31,HIGH(-@0)
	LD   R30,Z
	.ENDM

	.MACRO __GETB1HSX
	MOVW R30,R28
	SUBI R30,LOW(-@0)
	SBCI R31,HIGH(-@0)
	LD   R31,Z
	.ENDM

	.MACRO __GETW1SX
	MOVW R30,R28
	SUBI R30,LOW(-@0)
	SBCI R31,HIGH(-@0)
	LD   R0,Z+
	LD   R31,Z
	MOV  R30,R0
	.ENDM

	.MACRO __GETD1SX
	MOVW R30,R28
	SUBI R30,LOW(-@0)
	SBCI R31,HIGH(-@0)
	LD   R0,Z+
	LD   R1,Z+
	LD   R22,Z+
	LD   R23,Z
	MOVW R30,R0
	.ENDM

	.MACRO __GETB2SX
	MOVW R26,R28
	SUBI R26,LOW(-@0)
	SBCI R27,HIGH(-@0)
	LD   R26,X
	.ENDM

	.MACRO __GETW2SX
	MOVW R26,R28
	SUBI R26,LOW(-@0)
	SBCI R27,HIGH(-@0)
	LD   R0,X+
	LD   R27,X
	MOV  R26,R0
	.ENDM

	.MACRO __GETD2SX
	MOVW R26,R28
	SUBI R26,LOW(-@0)
	SBCI R27,HIGH(-@0)
	LD   R0,X+
	LD   R1,X+
	LD   R24,X+
	LD   R25,X
	MOVW R26,R0
	.ENDM

	.MACRO __GETBRSX
	MOVW R30,R28
	SUBI R30,LOW(-@1)
	SBCI R31,HIGH(-@1)
	LD   R@0,Z
	.ENDM

	.MACRO __GETWRSX
	MOVW R30,R28
	SUBI R30,LOW(-@2)
	SBCI R31,HIGH(-@2)
	LD   R@0,Z+
	LD   R@1,Z
	.ENDM

	.MACRO __GETBRSX2
	MOVW R26,R28
	SUBI R26,LOW(-@1)
	SBCI R27,HIGH(-@1)
	LD   R@0,X
	.ENDM

	.MACRO __GETWRSX2
	MOVW R26,R28
	SUBI R26,LOW(-@2)
	SBCI R27,HIGH(-@2)
	LD   R@0,X+
	LD   R@1,X
	.ENDM

	.MACRO __LSLW8SX
	MOVW R30,R28
	SUBI R30,LOW(-@0)
	SBCI R31,HIGH(-@0)
	LD   R31,Z
	CLR  R30
	.ENDM

	.MACRO __PUTB1SX
	MOVW R26,R28
	SUBI R26,LOW(-@0)
	SBCI R27,HIGH(-@0)
	ST   X,R30
	.ENDM

	.MACRO __PUTW1SX
	MOVW R26,R28
	SUBI R26,LOW(-@0)
	SBCI R27,HIGH(-@0)
	ST   X+,R30
	ST   X,R31
	.ENDM

	.MACRO __PUTD1SX
	MOVW R26,R28
	SUBI R26,LOW(-@0)
	SBCI R27,HIGH(-@0)
	ST   X+,R30
	ST   X+,R31
	ST   X+,R22
	ST   X,R23
	.ENDM

	.MACRO __CLRW1SX
	MOVW R26,R28
	SUBI R26,LOW(-@0)
	SBCI R27,HIGH(-@0)
	ST   X+,R30
	ST   X,R30
	.ENDM

	.MACRO __CLRD1SX
	MOVW R26,R28
	SUBI R26,LOW(-@0)
	SBCI R27,HIGH(-@0)
	ST   X+,R30
	ST   X+,R30
	ST   X+,R30
	ST   X,R30
	.ENDM

	.MACRO __PUTB2SX
	MOVW R30,R28
	SUBI R30,LOW(-@0)
	SBCI R31,HIGH(-@0)
	ST   Z,R26
	.ENDM

	.MACRO __PUTW2SX
	MOVW R30,R28
	SUBI R30,LOW(-@0)
	SBCI R31,HIGH(-@0)
	ST   Z+,R26
	ST   Z,R27
	.ENDM

	.MACRO __PUTD2SX
	MOVW R30,R28
	SUBI R30,LOW(-@0)
	SBCI R31,HIGH(-@0)
	ST   Z+,R26
	ST   Z+,R27
	ST   Z+,R24
	ST   Z,R25
	.ENDM

	.MACRO __PUTBSRX
	MOVW R30,R28
	SUBI R30,LOW(-@1)
	SBCI R31,HIGH(-@1)
	ST   Z,R@0
	.ENDM

	.MACRO __PUTWSRX
	MOVW R30,R28
	SUBI R30,LOW(-@2)
	SBCI R31,HIGH(-@2)
	ST   Z+,R@0
	ST   Z,R@1
	.ENDM

	.MACRO __PUTB1SNX
	MOVW R26,R28
	SUBI R26,LOW(-@0)
	SBCI R27,HIGH(-@0)
	LD   R0,X+
	LD   R27,X
	MOV  R26,R0
	SUBI R26,LOW(-@1)
	SBCI R27,HIGH(-@1)
	ST   X,R30
	.ENDM

	.MACRO __PUTW1SNX
	MOVW R26,R28
	SUBI R26,LOW(-@0)
	SBCI R27,HIGH(-@0)
	LD   R0,X+
	LD   R27,X
	MOV  R26,R0
	SUBI R26,LOW(-@1)
	SBCI R27,HIGH(-@1)
	ST   X+,R30
	ST   X,R31
	.ENDM

	.MACRO __PUTD1SNX
	MOVW R26,R28
	SUBI R26,LOW(-@0)
	SBCI R27,HIGH(-@0)
	LD   R0,X+
	LD   R27,X
	MOV  R26,R0
	SUBI R26,LOW(-@1)
	SBCI R27,HIGH(-@1)
	ST   X+,R30
	ST   X+,R31
	ST   X+,R22
	ST   X,R23
	.ENDM

	.MACRO __MULBRR
	MULS R@0,R@1
	MOVW R30,R0
	.ENDM

	.MACRO __MULBRRU
	MUL  R@0,R@1
	MOVW R30,R0
	.ENDM

	.MACRO __MULBRR0
	MULS R@0,R@1
	.ENDM

	.MACRO __MULBRRU0
	MUL  R@0,R@1
	.ENDM

	.MACRO __MULBNWRU
	LDI  R26,@2
	MUL  R26,R@0
	MOVW R30,R0
	MUL  R26,R@1
	ADD  R31,R0
	.ENDM

;NAME DEFINITIONS FOR GLOBAL VARIABLES ALLOCATED TO REGISTERS
	.DEF _dem=R3
	.DEF _dem1=R5
	.DEF _chonchu=R7
	.DEF _dosang=R10
	.DEF _sang=R11
	.DEF _gio=R9
	.DEF _phut=R14
	.DEF _giay=R13

;GPIOR0 INITIALIZATION VALUE
	.EQU __GPIOR0_INIT=0x00

	.CSEG
	.ORG 0x00

;START OF CODE MARKER
__START_OF_CODE:

;INTERRUPT VECTORS
	JMP  __RESET
	JMP  _Ngat_Ngoai_0
	JMP  0x00
	JMP  0x00
	JMP  0x00
	JMP  0x00
	JMP  0x00
	JMP  0x00
	JMP  0x00
	JMP  0x00
	JMP  0x00
	JMP  0x00
	JMP  0x00
	JMP  _Ngat_Timer_1
	JMP  0x00
	JMP  0x00
	JMP  _Ngat_Timer_0
	JMP  0x00
	JMP  0x00
	JMP  0x00
	JMP  0x00
	JMP  0x00
	JMP  0x00
	JMP  0x00
	JMP  0x00
	JMP  0x00

_so:
	.DB  0xFF,0xFF,0x83,0x1,0x39,0x39,0x39,0x39
	.DB  0x39,0x39,0x39,0x39,0x1,0x83,0xFF,0xFF
	.DB  0xFF,0xFF,0xE7,0xE7,0x87,0x87,0xE7,0xE7
	.DB  0xE7,0xE7,0xE7,0xE7,0x81,0x81,0xFF,0xFF
	.DB  0xFF,0xFF,0x83,0x1,0x39,0xF9,0xF9,0xF9
	.DB  0xF3,0xE7,0xCF,0x9F,0x1,0x1,0xFF,0xFF
	.DB  0xFF,0xFF,0x83,0x1,0x39,0xF9,0xF9,0xC1
	.DB  0xC1,0xF9,0xF9,0xF9,0x1,0x83,0xFF,0xFF
	.DB  0xFF,0xFF,0x39,0x39,0x39,0x39,0x39,0x1
	.DB  0x81,0xF9,0xF9,0xF9,0xF9,0xF9,0xFF,0xFF
	.DB  0xFF,0xFF,0x1,0x1,0x3F,0x3F,0x3F,0x3
	.DB  0x1,0xF9,0xF9,0x79,0x1,0x83,0xFF,0xFF
	.DB  0xFF,0xFF,0x83,0x1,0x39,0x3F,0x3F,0x3
	.DB  0x1,0x39,0x39,0x39,0x1,0x83,0xFF,0xFF
	.DB  0xFF,0xFF,0x83,0x1,0x39,0x39,0x39,0xF9
	.DB  0xF9,0xF9,0xF9,0xF9,0xF9,0xF9,0xFF,0xFF
	.DB  0xFF,0xFF,0x83,0x1,0x39,0x39,0x39,0x83
	.DB  0x1,0x39,0x39,0x39,0x1,0x83,0xFF,0xFF
	.DB  0xFF,0xFF,0x83,0x1,0x39,0x39,0x39,0x1
	.DB  0x81,0xF9,0xF9,0xF9,0x1,0x83,0xFF,0xFF
	.DB  0xFF,0xFF,0xFF,0xFF,0xE7,0xE7,0xFF,0xFF
	.DB  0xFF,0xFF,0xE7,0xE7,0xFF,0xFF,0xFF,0xFF
	.DB  0xFF,0xFF,0xFF,0xFF,0xFF,0xFF,0xFF,0xFF
	.DB  0xFF,0xFF,0xFF,0xFF,0xFF,0xFF,0xFF,0xFF
	.DB  0xFF,0xFF,0xFF,0xFF,0xFF,0xFF,0xFF,0xC3
	.DB  0xC3,0xFF,0xFF,0xFF,0xFF,0xFF,0xFF,0xFF
	.DB  0xFF,0xFF,0xFF,0xFF,0xFF,0xE7,0xE7,0x81
	.DB  0x81,0xE7,0xE7,0xFF,0xFF,0xFF,0xFF,0xFF
_font:
	.DB  0xFF,0xFF,0xFF,0xFF,0xFF,0xFC,0xFF,0xFF
	.DB  0xFF,0xFF,0xFF,0xFF,0xFF,0xFF,0xFF,0xFF
	.DB  0xFF,0xFF,0xFF,0xFF,0xF3,0xFF,0xFF,0xFF
	.DB  0xFF,0xFF,0xFF,0xFF,0xFF,0xFF,0xFF,0xFF
	.DB  0xFF,0x8F,0xF1,0xFF,0xFF,0xFF,0xFF,0xFF
	.DB  0xFF,0xFF,0xFF,0xFF,0xFF,0xFF,0xFF,0xFF
	.DB  0xFE,0x7F,0xFF,0xFF,0xFF,0xFF,0xFF,0xFF
	.DB  0xFF,0xFF,0xFF,0xFF,0xFF,0xFF,0xFF,0xF9
	.DB  0xFF,0xFF,0xFF,0xFF,0xFF,0xFF,0xFF,0xFF
	.DB  0xFF,0xFF,0xFF,0xFF,0x77,0xEE,0xFF,0xFF
	.DB  0xFF,0xFF,0xFF,0xFF,0xFF,0xFF,0xFF,0xFF
	.DB  0xFF,0xFF,0xFF,0xC7,0x3F,0xFF,0xFF,0xFF
	.DB  0xFF,0xFF,0xFF,0xFF,0xFF,0xFF,0xFF,0xFF
	.DB  0xFF,0xFF,0x3C,0xFF,0xFF,0xFF,0xFF,0xFF
	.DB  0xFF,0xFF,0xFF,0xFF,0xFE,0x7,0xFF,0x77
	.DB  0xEE,0xFF,0xFF,0xFF,0xFF,0xFF,0xFF,0xFF
	.DB  0xFF,0xFF,0xFF,0xFF,0xFF,0xFF,0x83,0xFF
	.DB  0xFF,0xFF,0xFF,0xFF,0xFF,0xFF,0xFF,0xFF
	.DB  0xFF,0xFF,0xFF,0xFF,0xFC,0xF,0xFF,0xFF
	.DB  0xFF,0xFF,0xFF,0xFF,0xFF,0xFF,0xFF,0xFE
	.DB  0x7,0xFF,0x8F,0xF1,0xFF,0xFF,0xFF,0xFF
	.DB  0xFF,0xFF,0xFF,0xFF,0xC0,0x0,0x0,0x7F
	.DB  0xFC,0x0,0xFF,0xFF,0xFF,0xFF,0xFC,0x0
	.DB  0x0,0xFF,0xFC,0x0,0xE,0x0,0x3,0xF0
	.DB  0x3,0xFF,0xFC,0x0,0x3,0xFF,0xFF,0xFF
	.DB  0xFF,0xFF,0xFE,0x7,0xFF,0xE0,0xF,0xFF
	.DB  0xFF,0xFF,0xFF,0xFF,0xFF,0xFF,0xFF,0xC0
	.DB  0x0,0x0,0x1F,0xF8,0x70,0x7F,0xFF,0xFF
	.DB  0xFF,0xC0,0x0,0x0,0xFF,0xFC,0x0,0xE
	.DB  0x0,0x3,0xE1,0xC1,0xFF,0xFC,0x0,0x3
	.DB  0xFF,0xFF,0xFF,0xFF,0xFF,0xFE,0x7,0xFF
	.DB  0xDF,0xF7,0xFF,0xFF,0xFF,0xFF,0xFF,0xFF
	.DB  0xFF,0xFF,0xFC,0xF,0xE0,0xF,0xFF,0xFF
	.DB  0xFF,0xFF,0xFF,0xFF,0x0,0x3F,0x1,0xFF
	.DB  0xFF,0xC0,0x3F,0xC0,0x3F,0xFF,0xFF,0xFF
	.DB  0xFF,0x80,0x3F,0xFF,0xFF,0xFF,0xFF,0xFF
	.DB  0xFE,0x7,0xFF,0xBF,0xFB,0xFF,0xFF,0xFF
	.DB  0xFF,0xFF,0xFF,0xFF,0xFF,0xFC,0xF,0xF0
	.DB  0x7,0xF8,0x1,0xFC,0x1,0x80,0x7F,0x0
	.DB  0xFF,0x80,0xFF,0xFF,0xC0,0x7F,0xC0,0x7F
	.DB  0xE0,0x7,0xFF,0xFF,0x80,0x7F,0xFF,0xFF
	.DB  0x80,0x3F,0xF8,0xE,0x7,0xFF,0xBF,0xDD
	.DB  0xFF,0xFF,0xFF,0xFF,0xFF,0xFF,0xFF,0xFF
	.DB  0xFC,0xF,0xF8,0x3,0xC0,0x0,0x3F,0x0
	.DB  0x0,0x1F,0x0,0xFF,0xFF,0xFF,0xFF,0x80
	.DB  0x7F,0x80,0x7F,0x0,0x0,0xFF,0xFF,0x80
	.DB  0x7F,0xFF,0xFC,0x0,0x7,0xE0,0x0,0x7
	.DB  0xFF,0xBF,0xBD,0xFF,0xFF,0xFF,0xFF,0xFF
	.DB  0xFF,0xFF,0xFF,0xE0,0x3,0xF0,0x3,0x80
	.DB  0x70,0x1F,0x0,0xF0,0x1C,0x1,0xE0,0x0
	.DB  0x1F,0xFF,0x80,0x0,0x0,0x7E,0x3,0xC0
	.DB  0x7F,0xFF,0x80,0x7F,0xFF,0xF0,0x1E,0x3
	.DB  0xC0,0x38,0x7,0xFF,0xA0,0x7D,0xFF,0xFF
	.DB  0xFF,0xFF,0xFF,0xFF,0xFF,0xFF,0xE0,0x3
	.DB  0xF8,0x3,0x1,0xF8,0xF,0x1,0xF0,0x1C
	.DB  0x1,0xC0,0x0,0x1F,0xFF,0x80,0x0,0x0
	.DB  0x7C,0x7,0xF0,0x3F,0xFF,0x80,0x7F,0xFF
	.DB  0xE0,0x3E,0x1,0x80,0x7C,0x7,0xFF,0xBF
	.DB  0xFD,0xFF,0xFF,0xFF,0xFF,0xFF,0xFF,0xFF
	.DB  0xFF,0xFC,0xF,0xF0,0x7,0x1,0xF8,0xF
	.DB  0x1,0xF0,0x1C,0x1,0xFC,0x3,0xFF,0xFF
	.DB  0x80,0x7F,0x80,0x7C,0x7,0xF0,0x3F,0xFF
	.DB  0x80,0x7F,0xC0,0x60,0x0,0x1,0x80,0x7C
	.DB  0x7,0xFF,0xDF,0xFB,0xFF,0xFF,0xFF,0xFF
	.DB  0xFF,0xFF,0xFF,0xFF,0xFC,0xF,0xF0,0x7
	.DB  0x1,0xF8,0x1F,0x1,0xF0,0x3E,0x0,0xF8
	.DB  0x3,0xFF,0xFF,0x80,0x7F,0x80,0x7C,0x7
	.DB  0xF0,0x7F,0xFF,0x80,0x7F,0xC0,0xE0,0x7F
	.DB  0xFF,0x80,0x7C,0x7,0xFF,0xEF,0xF7,0xFF
	.DB  0xFF,0xFF,0xFF,0xFF,0xFF,0xFF,0xFF,0xFC
	.DB  0xF,0xC0,0x1F,0x0,0xE0,0x1F,0x3,0xF0
	.DB  0x3E,0x0,0x78,0x3,0xFF,0xFF,0x80,0xF
	.DB  0x80,0xFC,0x3,0x80,0x7F,0xFF,0x80,0xFF
	.DB  0xC0,0xE0,0x3F,0x83,0x80,0x78,0xF,0xFF
	.DB  0xF0,0x7,0xFF,0xFF,0xFF,0xFF,0xFF,0xFF
	.DB  0xFF,0xFF,0x0,0x0,0x0,0x7F,0x80,0x0
	.DB  0x70,0x0,0x80,0x7,0x80,0x0,0x3,0xFF
	.DB  0xF0,0x0,0xF,0x0,0xE,0x0,0x1,0xFF
	.DB  0xF0,0x0,0x0,0x0,0xF0,0x0,0x7,0xC0
	.DB  0x0,0x1,0xFF,0xFF,0xF7,0xFF,0xFF,0xFF
	.DB  0xFF,0xFF,0xFF,0xFF,0xFF,0x0,0x0,0x1
	.DB  0xFF,0xF0,0x3,0xF0,0x0,0x80,0x7,0xF8
	.DB  0x3,0x3,0xFF,0xF0,0x0,0xF,0x0,0xF
	.DB  0xC0,0xF,0xFF,0xF0,0x0,0x0,0x0,0xFE
	.DB  0x0,0x3F,0xF8,0x8,0x1,0xFF,0xF,0xF0
	.DB  0xFF,0xFF,0xFF,0xFF,0xFF,0xFF,0xFF,0xFF
_chu:
	.DB  0xFF,0xFF,0xFF,0xFF,0xE1,0xE1,0xC9,0xC9
	.DB  0xC9,0x99,0x81,0x99,0x39,0xFF,0xFF,0xFF
	.DB  0xFF,0xFF,0xFF,0xFF,0xC1,0xCC,0x9C,0x9C
	.DB  0x81,0x9C,0x9C,0x3C,0x1,0xFF,0xFF,0xFF
	.DB  0xFF,0xFF,0xFF,0xFF,0xC3,0x99,0x99,0x3F
	.DB  0x3F,0x3F,0x39,0x39,0x83,0xFF,0xFF,0xFF
	.DB  0xFF,0xFF,0xFF,0xFF,0xC1,0x8C,0x9C,0x9C
	.DB  0x9C,0x9C,0x99,0x39,0x3,0xFF,0xFF,0xFF
	.DB  0xFF,0xFF,0xFF,0xFF,0xC1,0xCF,0x9F,0x9F
	.DB  0x83,0x9F,0x9F,0x3F,0x3,0xFF,0xFF,0xFF
	.DB  0xFF,0xFF,0xFF,0xFF,0xC1,0xCF,0x9F,0x9F
	.DB  0x83,0x9F,0x9F,0x3F,0x3F,0xFF,0xFF,0xFF
	.DB  0xFF,0xFF,0xFF,0xFF,0xC3,0x99,0x99,0x3F
	.DB  0x21,0x39,0x39,0x31,0x83,0xFF,0xFF,0xFF
	.DB  0xFF,0xFF,0xFF,0xFF,0xCC,0xCC,0x99,0x99
	.DB  0x81,0x99,0x99,0x33,0x33,0xFF,0xFF,0xFF
	.DB  0xFF,0xFF,0xFF,0xFF,0xF3,0xFF,0xE7,0xE7
	.DB  0xE7,0xE7,0xE7,0xCF,0xCF,0xFF,0xFF,0xFF
	.DB  0xFF,0xFF,0xFF,0xFF,0xF9,0xF9,0xF3,0xF3
	.DB  0xF3,0xF3,0xF3,0x27,0x8F,0xFF,0xFF,0xFF
	.DB  0xFF,0xFF,0xFF,0xFF,0xCC,0xC9,0x93,0x87
	.DB  0x87,0x93,0x93,0x39,0x39,0xFF,0xFF,0xFF
	.DB  0xFF,0xFF,0xFF,0xFF,0xCF,0xCF,0x9F,0x9F
	.DB  0x9F,0x9F,0x9F,0x3F,0x3,0xFF,0xFF,0xFF
	.DB  0xFF,0xFF,0xFF,0xFF,0xBE,0x9C,0x82,0xA2
	.DB  0xB6,0xBE,0xBE,0x3C,0x3C,0xFF,0xFF,0xFF
	.DB  0xFF,0xFF,0xFF,0xFF,0xDC,0xDC,0x89,0x89
	.DB  0xA9,0xA1,0xA1,0x33,0x33,0xFF,0xFF,0xFF
	.DB  0xFF,0xFF,0xFF,0xFF,0xC3,0x99,0x99,0xB9
	.DB  0x39,0x39,0x3B,0x33,0x87,0xFF,0xFF,0xFF
	.DB  0xFF,0xFF,0xFF,0xFF,0xC1,0xCC,0x9C,0x9C
	.DB  0x9C,0x81,0x9F,0x3F,0x3F,0xFF,0xFF,0xFF
	.DB  0xFF,0xFF,0xFF,0xFF,0xC3,0x99,0x99,0x39
	.DB  0x39,0x39,0x2B,0x33,0x87,0xFF,0xFF,0xFF
	.DB  0xFF,0xFF,0xFF,0xFF,0xC1,0xCC,0x9C,0x9C
	.DB  0x83,0x93,0x93,0x39,0x39,0xFF,0xFF,0xFF
	.DB  0xFF,0xFF,0xFF,0xFF,0xE3,0xC9,0xC9,0xCF
	.DB  0xE7,0xF3,0x93,0x93,0xC7,0xFF,0xFF,0xFF
	.DB  0xFF,0xFF,0xFF,0xFF,0x1,0xE7,0xCF,0xCF
	.DB  0xCF,0xCF,0xCF,0x9F,0x9F,0xFF,0xFF,0xFF
	.DB  0xFF,0xFF,0xFF,0xFF,0x9C,0x9C,0x39,0x39
	.DB  0x39,0x39,0x39,0x33,0x87,0xFF,0xFF,0xFF
	.DB  0xFF,0xFF,0xFF,0xFF,0x39,0x33,0x33,0x37
	.DB  0x27,0x2F,0xF,0x1F,0x1F,0xFF,0xFF,0xFF
	.DB  0xFF,0xFF,0xFF,0xFF,0x6E,0x6C,0x4D,0x49
	.DB  0x4B,0x23,0x27,0x27,0x6F,0xFF,0xFF,0xFF
	.DB  0xFF,0xFF,0xFF,0xFF,0x3D,0x1B,0x93,0x93
	.DB  0xC7,0xCF,0xCF,0x9F,0x9F,0xFF,0xFF,0xFF
	.DB  0xFF,0xFF,0xFF,0xFF,0x3D,0x1B,0x93,0x93
	.DB  0xC7,0xCF,0xCF,0x9F,0x9F,0xFF,0xFF,0xFF
	.DB  0xFF,0xFF,0xFF,0xFF,0x81,0xF3,0xF3,0xE7
	.DB  0xC7,0xCF,0x9F,0x9F,0x1,0xFF,0xFF,0xFF
	.DB  0xFC,0xF9,0xF3,0xFF,0xE1,0xE1,0xC9,0xC9
	.DB  0xC9,0x99,0x81,0x99,0x39,0xFF,0xFF,0xFF
	.DB  0xFF,0xFF,0xFF,0xFF,0xFF,0xFF,0xFF,0xFF
	.DB  0xFF,0xFF,0xFF,0xE7,0xE7,0xFF,0xFF,0xFF
	.DB  0xFF,0xFF,0xFF,0xFF,0xE7,0xE7,0xFF,0xFF
	.DB  0xFF,0xFF,0xE7,0xE7,0xFF,0xFF,0xFF,0xFF
	.DB  0xFF,0xFF,0xFF,0xFF,0xFF,0xFF,0xFF,0xFF
	.DB  0xFF,0xFF,0xFF,0xFF,0xFF,0xFF,0xFF,0xFF
	.DB  0x7,0x7,0x7,0x67,0x67,0x67,0x61,0x66
	.DB  0x66,0x61,0x67,0x67,0x67,0x7,0x7,0x7
	.DB  0x7,0x7,0x7,0x7,0x7,0x7,0x1,0x6
	.DB  0x6,0x1,0x7,0x7,0x7,0x7,0x7,0x7
	.DB  0x9F,0xCF,0xE5,0xFC,0xC0,0x98,0x99,0xB9
	.DB  0x39,0x39,0x39,0x33,0x87,0xFF,0xFF,0xFF
	.DB  0xF9,0xF3,0xE7,0xFF,0x9C,0x9C,0x39,0x39
	.DB  0x39,0x39,0x39,0x33,0x87,0xFF,0xFF,0xFF
	.DB  0xF3,0xE1,0xCC,0xFF,0xE1,0xE1,0xC9,0xC9
	.DB  0xC9,0x99,0x81,0x99,0x39,0xFF,0xFF,0xFF
	.DB  0xE7,0xF3,0xF9,0xFF,0xE1,0xE1,0xC9,0xC9
	.DB  0xC9,0x99,0x81,0x99,0x39,0xFF,0xFF,0xFF
	.DB  0xFC,0xF9,0xF3,0xFF,0xE1,0xE1,0xC9,0xC9
	.DB  0xC9,0x99,0x81,0x99,0x39,0xFF,0xFF,0xFF
	.DB  0xCC,0xE0,0xF1,0xFF,0xE1,0xE1,0xC9,0xC9
	.DB  0xC9,0x99,0x81,0x99,0x39,0xFF,0xFF,0xFF
	.DB  0xFF,0xFF,0xFF,0xFF,0xFF,0xFF,0xFF,0xC3
	.DB  0xC3,0xFF,0xFF,0xFF,0xFF,0xFF,0xFF,0xFF
	.DB  0xF3,0xC9,0x9C,0xFF,0xC3,0x99,0x99,0xB9
	.DB  0x39,0x39,0x3B,0x33,0x87,0xFF,0xFF,0xFF
	.DB  0xF3,0xE1,0xCC,0xFF,0xE1,0xE1,0xC9,0xC9
	.DB  0xC9,0x99,0x81,0x99,0x39,0xFF,0xE7,0xE7
	.DB  0xFF,0xE7,0xDB,0xDB,0xE7,0xFF,0xFF,0xFF
	.DB  0xFF,0xFF,0xFF,0xFF,0xFF,0xFF,0xFF,0xFF
	.DB  0xFF,0xFF,0xFF,0xFF,0xFF,0xFF,0xC3,0xFF
	.DB  0xC3,0xFF,0xFF,0xFF,0xFF,0xFF,0xFF,0xFF
	.DB  0x9F,0xCF,0xE7,0xFE,0xC2,0x98,0x99,0xB9
	.DB  0x39,0x39,0x3B,0x33,0x87,0xFF,0xFF,0xFF
	.DB  0xF3,0xC9,0x9C,0xFF,0xC3,0x99,0x99,0xB9
	.DB  0x39,0x39,0x3B,0x33,0x87,0xFF,0xCF,0xCF
	.DB  0xFF,0xFF,0xFF,0xFF,0xC1,0x8C,0x9C,0xC
	.DB  0xC,0x9C,0x99,0x39,0x3,0xFF,0xFF,0xFF
	.DB  0x9F,0xCF,0xE7,0xFF,0x9C,0x9C,0x39,0x39
	.DB  0x39,0x39,0x39,0x33,0x87,0xFF,0xFF,0xFF
	.DB  0xF3,0xE1,0xCC,0xFF,0xC1,0xCF,0x9F,0x9F
	.DB  0x83,0x9F,0x9F,0x3F,0x3,0xFF,0xCF,0xCF
	.DB  0xF3,0xFD,0xFB,0xFF,0xE1,0xE1,0xC9,0xC9
	.DB  0xC9,0x99,0x81,0x99,0x39,0xFF,0xFF,0xFF
	.DB  0xFF,0xFF,0xFF,0xFF,0xE1,0xE1,0xC9,0xC9
	.DB  0xC9,0x99,0x81,0x99,0x39,0xFF,0xE7,0xE7
_thanhtruotIphone:
	.DB  0x0,0x0,0x0,0x0,0x7,0xFF,0xFF,0xE0
	.DB  0x9,0xFE,0x0,0x10,0x12,0x1,0x0,0x8
	.DB  0x24,0x0,0x80,0x4,0x28,0x0,0x40,0x4
	.DB  0x28,0x0,0x40,0x4,0x28,0x0,0x40,0x4
	.DB  0x28,0x0,0x40,0x4,0x28,0x0,0x40,0x4
	.DB  0x28,0x0,0x40,0x4,0x24,0x0,0x80,0x4
	.DB  0x12,0x1,0x0,0x8,0x9,0xFE,0x0,0x10
	.DB  0x7,0xFF,0xFF,0xE0,0x0,0x0,0x0,0x0
	.DB  0x0,0x0,0x0,0x0,0x7,0xFF,0xFF,0xE0
	.DB  0xC,0x3,0xFF,0xF0,0x18,0x1,0xFF,0xF8
	.DB  0x30,0x0,0xFF,0xFC,0x30,0x0,0xFF,0xFC
	.DB  0x30,0x0,0xFF,0xFC,0x30,0x0,0xFF,0xFC
	.DB  0x30,0x0,0xFF,0xFC,0x30,0x0,0xFF,0xFC
	.DB  0x30,0x0,0xFF,0xFC,0x30,0x0,0xFF,0xFC
	.DB  0x18,0x1,0xFF,0xF8,0xC,0x3,0xFF,0xF0
	.DB  0x7,0xFF,0xFF,0xE0,0x0,0x0,0x0,0x0
	.DB  0x0,0x0,0x0,0x0,0x7,0xFF,0xFF,0xE0
	.DB  0xE,0x1,0xFF,0xF0,0x1C,0x0,0xFF,0xF8
	.DB  0x38,0x0,0x7F,0xFC,0x38,0x0,0x7F,0xFC
	.DB  0x38,0x0,0x7F,0xFC,0x38,0x0,0x7F,0xFC
	.DB  0x38,0x0,0x7F,0xFC,0x38,0x0,0x7F,0xFC
	.DB  0x38,0x0,0x7F,0xFC,0x38,0x0,0x7F,0xFC
	.DB  0x1C,0x0,0xFF,0xF8,0xE,0x1,0xFF,0xF0
	.DB  0x7,0xFF,0xFF,0xE0,0x0,0x0,0x0,0x0
	.DB  0x0,0x0,0x0,0x0,0x7,0xFF,0xFF,0xE0
	.DB  0xF,0x0,0xFF,0xF0,0x1E,0x0,0x7F,0xF8
	.DB  0x3C,0x0,0x3F,0xFC,0x3C,0x0,0x3F,0xFC
	.DB  0x3C,0x0,0x3F,0xFC,0x3C,0x0,0x3F,0xFC
	.DB  0x3C,0x0,0x3F,0xFC,0x3C,0x0,0x3F,0xFC
	.DB  0x3C,0x0,0x3F,0xFC,0x3C,0x0,0x3F,0xFC
	.DB  0x1E,0x0,0x7F,0xF8,0xF,0x0,0xFF,0xF0
	.DB  0x7,0xFF,0xFF,0xE0,0x0,0x0,0x0,0x0
	.DB  0x0,0x0,0x0,0x0,0x7,0xFF,0xFF,0xE0
	.DB  0xF,0xC0,0x3F,0xF0,0x1F,0x80,0x1F,0xF8
	.DB  0x3F,0x0,0xF,0xFC,0x3F,0x0,0xF,0xFC
	.DB  0x3F,0x0,0xF,0xFC,0x3F,0x0,0xF,0xFC
	.DB  0x3F,0x0,0xF,0xFC,0x3F,0x0,0xF,0xFC
	.DB  0x3F,0x0,0xF,0xFC,0x3F,0x0,0xF,0xFC
	.DB  0x1F,0x80,0x1F,0xF8,0xF,0xC0,0x3F,0xF0
	.DB  0x7,0xFF,0xFF,0xE0,0x0,0x0,0x0,0x0
	.DB  0x0,0x0,0x0,0x0,0x7,0xFF,0xFF,0xE0
	.DB  0xF,0xC0,0x3F,0xF0,0x1F,0x80,0x1F,0xF8
	.DB  0x3F,0x0,0xF,0xFC,0x3F,0x0,0xF,0xFC
	.DB  0x3F,0x0,0xF,0xFC,0x3F,0x0,0xF,0xFC
	.DB  0x3F,0x0,0xF,0xFC,0x3F,0x0,0xF,0xFC
	.DB  0x3F,0x0,0xF,0xFC,0x3F,0x0,0xF,0xFC
	.DB  0x1F,0x80,0x1F,0xF8,0xF,0xC0,0x3F,0xF0
	.DB  0x7,0xFF,0xFF,0xE0,0x0,0x0,0x0,0x0
	.DB  0x0,0x0,0x0,0x0,0x7,0xFF,0xFF,0xE0
	.DB  0xF,0xE0,0x1F,0xF0,0x1F,0xC0,0xF,0xF8
	.DB  0x3F,0x80,0x7,0xFC,0x3F,0x80,0x7,0xFC
	.DB  0x3F,0x80,0x7,0xFC,0x3F,0x80,0x7,0xFC
	.DB  0x3F,0x80,0x7,0xFC,0x3F,0x80,0x7,0xFC
	.DB  0x3F,0x80,0x7,0xFC,0x3F,0x80,0x7,0xFC
	.DB  0x1F,0xC0,0xF,0xF8,0xF,0xE0,0x1F,0xF0
	.DB  0x7,0xFF,0xFF,0xE0,0x0,0x0,0x0,0x0
	.DB  0x0,0x0,0x0,0x0,0x7,0xFF,0xFF,0xE0
	.DB  0xF,0xF0,0xF,0xF0,0x1F,0xE0,0x7,0xF8
	.DB  0x3F,0xC0,0x3,0xFC,0x3F,0xC0,0x3,0xFC
	.DB  0x3F,0xC0,0x3,0xFC,0x3F,0xC0,0x3,0xFC
	.DB  0x3F,0xC0,0x3,0xFC,0x3F,0xC0,0x3,0xFC
	.DB  0x3F,0xC0,0x3,0xFC,0x3F,0xC0,0x3,0xFC
	.DB  0x1F,0xE0,0x7,0xF8,0xF,0xF0,0xF,0xF0
	.DB  0x7,0xFF,0xFF,0xE0,0x0,0x0,0x0,0x0
	.DB  0x0,0x0,0x0,0x0,0x7,0xFF,0xFF,0xE0
	.DB  0xF,0xF8,0x7,0xF0,0x1F,0xF0,0x3,0xF8
	.DB  0x3F,0xE0,0x1,0xFC,0x3F,0xE0,0x1,0xFC
	.DB  0x3F,0xE0,0x1,0xFC,0x3F,0xE0,0x1,0xFC
	.DB  0x3F,0xE0,0x1,0xFC,0x3F,0xE0,0x1,0xFC
	.DB  0x3F,0xE0,0x1,0xFC,0x3F,0xE0,0x1,0xFC
	.DB  0x1F,0xF0,0x3,0xF8,0xF,0xF8,0x7,0xF0
	.DB  0x7,0xFF,0xFF,0xE0,0x0,0x0,0x0,0x0
	.DB  0x0,0x0,0x0,0x0,0x7,0xFF,0xFF,0xE0
	.DB  0xF,0xFC,0x3,0xF0,0x1F,0xF8,0x1,0xF8
	.DB  0x3F,0xF0,0x0,0xFC,0x3F,0xF0,0x0,0xFC
	.DB  0x3F,0xF0,0x0,0xFC,0x3F,0xF0,0x0,0xFC
	.DB  0x3F,0xF0,0x0,0xFC,0x3F,0xF0,0x0,0xFC
	.DB  0x3F,0xF0,0x0,0xFC,0x3F,0xF0,0x0,0xFC
	.DB  0x1F,0xF8,0x1,0xF8,0xF,0xFC,0x3,0xF0
	.DB  0x7,0xFF,0xFF,0xE0,0x0,0x0,0x0,0x0
	.DB  0x0,0x0,0x0,0x0,0x7,0xFF,0xFF,0xE0
	.DB  0xF,0xFE,0x1,0xF0,0x1F,0xFC,0x0,0xF8
	.DB  0x3F,0xF8,0x0,0x7C,0x3F,0xF8,0x0,0x7C
	.DB  0x3F,0xF8,0x0,0x7C,0x3F,0xF8,0x0,0x7C
	.DB  0x3F,0xF8,0x0,0x7C,0x3F,0xF8,0x0,0x7C
	.DB  0x3F,0xF8,0x0,0x7C,0x3F,0xF8,0x0,0x7C
	.DB  0x1F,0xFC,0x0,0xF8,0xF,0xFE,0x1,0xF0
	.DB  0x7,0xFF,0xFF,0xE0,0x0,0x0,0x0,0x0
	.DB  0x0,0x0,0x0,0x0,0x7,0xFF,0xFF,0xE0
	.DB  0xF,0xFF,0x0,0xF0,0x1F,0xFE,0x0,0x78
	.DB  0x3F,0xFC,0x0,0x3C,0x3F,0xFC,0x0,0x3C
	.DB  0x3F,0xFC,0x0,0x3C,0x3F,0xFC,0x0,0x3C
	.DB  0x3F,0xFC,0x0,0x3C,0x3F,0xFC,0x0,0x3C
	.DB  0x3F,0xFC,0x0,0x3C,0x3F,0xFC,0x0,0x3C
	.DB  0x1F,0xFE,0x0,0x78,0xF,0xFF,0x0,0xF0
	.DB  0x7,0xFF,0xFF,0xE0,0x0,0x0,0x0,0x0
	.DB  0x0,0x0,0x0,0x0,0x7,0xFF,0xFF,0xE0
	.DB  0xF,0xFF,0x80,0x70,0x1F,0xFF,0x0,0x38
	.DB  0x3F,0xFE,0x0,0x1C,0x3F,0xFE,0x0,0x1C
	.DB  0x3F,0xFE,0x0,0x1C,0x3F,0xFE,0x0,0x1C
	.DB  0x3F,0xFE,0x0,0x1C,0x3F,0xFE,0x0,0x1C
	.DB  0x3F,0xFE,0x0,0x1C,0x3F,0xFE,0x0,0x1C
	.DB  0x1F,0xFF,0x0,0x38,0xF,0xFF,0x80,0x70
	.DB  0x7,0xFF,0xFF,0xE0,0x0,0x0,0x0,0x0
	.DB  0x0,0x0,0x0,0x0,0x7,0xFF,0xFF,0xE0
	.DB  0xF,0xFF,0xC0,0x30,0x1F,0xFF,0x80,0x18
	.DB  0x3F,0xFF,0x0,0xC,0x3F,0xFF,0x0,0xC
	.DB  0x3F,0xFF,0x0,0xC,0x3F,0xFF,0x0,0xC
	.DB  0x3F,0xFF,0x0,0xC,0x3F,0xFF,0x0,0xC
	.DB  0x3F,0xFF,0x0,0xC,0x3F,0xFF,0x0,0xC
	.DB  0x1F,0xFF,0x80,0x18,0xF,0xFF,0xC0,0x30
	.DB  0x7,0xFF,0xFF,0xE0,0x0,0x0,0x0,0x0
	.DB  0x0,0x0,0x0,0x0,0x7,0xFF,0xFF,0xE0
	.DB  0xF,0xFF,0xE0,0x10,0x1F,0xFF,0xC0,0x8
	.DB  0x3F,0xFF,0x80,0x4,0x3F,0xFF,0x80,0x4
	.DB  0x3F,0xFF,0x80,0x4,0x3F,0xFF,0x80,0x4
	.DB  0x3F,0xFF,0x80,0x4,0x3F,0xFF,0x80,0x4
	.DB  0x3F,0xFF,0x80,0x4,0x3F,0xFF,0x80,0x4
	.DB  0x1F,0xFF,0xC0,0x8,0xF,0xFF,0xE0,0x10
	.DB  0x7,0xFF,0xFF,0xE0,0x0,0x0,0x0,0x0
	.DB  0x0,0x0,0x0,0x0,0x7,0xFF,0xFF,0xE0
	.DB  0xF,0xFF,0xE0,0x10,0x1F,0xFF,0xC0,0x8
	.DB  0x3F,0xFF,0x80,0x4,0x3F,0xFF,0x80,0x4
	.DB  0x3F,0xFF,0x80,0x4,0x3F,0xFF,0x80,0x4
	.DB  0x3F,0xFF,0x80,0x4,0x3F,0xFF,0x80,0x4
	.DB  0x3F,0xFF,0x80,0x4,0x3F,0xFF,0x80,0x4
	.DB  0x1F,0xFF,0xC0,0x8,0xF,0xFF,0xE0,0x10
	.DB  0x7,0xFF,0xFF,0xE0,0x0,0x0,0x0,0x0
_lich:
	.DB  0x1B,0xC,0x11,0x12,0x3,0x4,0x15,0x6
	.DB  0x7,0x18,0x9,0x1A,0x1B,0xC,0x11,0x12
	.DB  0x3,0x14,0x4,0x15,0x6,0x7,0x18,0x9
	.DB  0x1A,0xB,0x1C,0x11,0x12,0x3,0x14,0x5
	.DB  0x16,0x7,0x8,0x19,0xA,0x1B,0xC,0x11
	.DB  0x12,0x3,0x14,0x15,0x6,0x17,0x8,0x9
	.DB  0x1A,0xB,0x1C,0x1,0x12,0x2,0x13,0x14
	.DB  0x5,0x16,0x7,0x18,0x9,0x1A,0xB,0x1C
	.DB  0x1,0x12,0x3,0x14,0x5,0x16,0x17,0x8
	.DB  0x19,0xA,0x1B,0xC,0x11,0x2,0x13,0x4
	.DB  0x5,0x16,0x17,0x7,0x18,0x19,0xA,0x1B
	.DB  0xC,0x11,0x2,0x13,0x4,0x5,0x16,0x7
	.DB  0x18,0x19,0x1A,0xB,0x1C,0x11,0x2,0x3
	.DB  0x14,0x5,0x6,0x17,0x8,0x19,0xA,0x1B
	.DB  0x1C,0x11,0x12,0x3,0x4,0x15,0x5,0x6
	.DB  0x17,0x8,0x19,0xA,0x1B,0x1C,0x11,0x2
	.DB  0x13,0x4,0x15,0x6,0x7,0x18,0x9,0x1A
	.DB  0xB,0x1C,0x11,0x2,0x13,0x14,0x5,0x16
	.DB  0x7,0x8,0x19,0xA,0x1B,0xC,0x11,0x2
	.DB  0x13,0x14,0x4,0x15,0x6,0x17,0x8,0x19
	.DB  0xA,0x1B,0xC,0x11,0x2,0x13,0x4,0x15
	.DB  0x16,0x7,0x18,0x9,0x1A,0xB,0x1C,0x1
	.DB  0x12,0x3,0x14,0x5,0x16,0x7,0x18,0x19
	.DB  0x9,0x1A,0xB,0x1C,0x1,0x12,0x3,0x4
	.DB  0x15,0x6,0x17,0x18,0x19,0xA,0x1B,0xC
	.DB  0x11,0x2,0x13,0x4,0x5,0x16,0x7,0x18
	.DB  0x19,0xA,0x1B,0x1C,0x1,0x12,0x3,0x14
	.DB  0x5,0x6,0x16,0x7,0x18,0x9,0x1A,0x1B
	.DB  0x1C,0x1,0x12,0x3,0x14,0x5,0x6,0x17
	.DB  0x8,0x19,0xA,0x1B,0x1C,0x11,0x2,0x13
	.DB  0x4,0x15,0x6,0x7,0x18,0x9,0xA,0x1B
	.DB  0x1C,0x1,0x12,0x13,0x14,0x4,0x15,0x6
	.DB  0x7,0x18,0x9,0x1A,0xB,0x1C
_count_year1:
	.DB  0x0,0x0,0x3B,0x0,0x9D,0x1,0x1D,0x3
	.DB  0x7F,0x4,0xE2,0x5,0x62,0x7,0xC4,0x8
	.DB  0x44,0xA,0xA7,0xB,0x9,0xD,0x89,0xE
	.DB  0xEB,0xF,0x4D,0x11,0xCD,0x12,0x30,0x14
	.DB  0xB0,0x15,0x12,0x17,0x75,0x18,0xF5,0x19
	.DB  0x57,0x1B,0xB9,0x1C,0x39,0x1E,0x9B,0x1F
	.DB  0xFE,0x20,0x7E,0x22,0xE0,0x23,0x60,0x25
	.DB  0xC2,0x26,0x24,0x28,0xA4,0x29,0x7,0x2B
	.DB  0x69,0x2C,0xE9,0x2D,0x4C,0x2F,0xCC,0x30
	.DB  0x2E,0x32,0x90,0x33,0x10,0x35,0x72,0x36
	.DB  0xD4,0x37,0x54,0x39,0xB7,0x3A,0x1A,0x3C
	.DB  0x9A,0x3D,0xFC,0x3E,0x7C,0x40,0xDE,0x41
	.DB  0x40,0x43,0xC0,0x44,0x22,0x46,0x85,0x47
	.DB  0x5,0x49,0x68,0x4A,0xE7,0x4B,0x4A,0x4D
	.DB  0xAC,0x4E,0x2B,0x50,0x8E,0x51,0xF0,0x52
	.DB  0x70,0x54,0xD3,0x55,0x35,0x57,0xB5,0x58
	.DB  0x17,0x5A,0x97,0x5B,0xF9,0x5C,0x5C,0x5E
	.DB  0xDC,0x5F,0x3E,0x61,0xA1,0x62,0x21,0x64
	.DB  0x83,0x65,0x3,0x67,0x65,0x68,0xC7,0x69
	.DB  0x47,0x6B,0xAA,0x6C,0xC,0x6E,0x8C,0x6F
	.DB  0xEF,0x70,0x51,0x72,0xD1,0x73,0x33,0x75
	.DB  0xB3,0x76,0x15,0x78,0x78,0x79,0xF8,0x7A
	.DB  0x5A,0x7C,0xBD,0x7D,0x3C,0x7F,0x9E,0x80
	.DB  0x1E,0x82,0x80,0x83,0xE3,0x84,0x63,0x86
	.DB  0xC6,0x87,0x28,0x89,0xA8,0x8A,0xA,0x8C
	.DB  0x6C,0x8D,0xEC,0x8E
_count_year:
	.DB  0x19,0x0,0x87,0x1,0xF4,0x2,0x61,0x4
	.DB  0xCE,0x5,0x3C,0x7,0xA9,0x8,0x16,0xA
	.DB  0x83,0xB,0xF1,0xC,0x5E,0xE,0xCB,0xF
	.DB  0x38,0x11,0xA6,0x12,0x13,0x14,0x80,0x15
	.DB  0xED,0x16,0x5B,0x18,0xC8,0x19,0x35,0x1B
	.DB  0xA2,0x1C,0x10,0x1E,0x7D,0x1F,0xEA,0x20
	.DB  0x57,0x22,0xC5,0x23,0x32,0x25,0x9F,0x26
	.DB  0xC,0x28,0x7A,0x29,0xE7,0x2A,0x54,0x2C
	.DB  0xC1,0x2D,0x2F,0x2F,0x9C,0x30,0x9,0x32
	.DB  0x76,0x33,0xE4,0x34,0x51,0x36,0xBE,0x37
	.DB  0x2B,0x39,0x99,0x3A,0x6,0x3C,0x73,0x3D
	.DB  0xE0,0x3E,0x4E,0x40,0xBB,0x41,0x28,0x43
	.DB  0x95,0x44,0x3,0x46,0x70,0x47,0xDD,0x48
	.DB  0x4A,0x4A,0xB8,0x4B,0x25,0x4D,0x92,0x4E
	.DB  0xFF,0x4F,0x6D,0x51,0xDA,0x52,0x47,0x54
	.DB  0xB4,0x55,0x22,0x57,0x8F,0x58,0xFC,0x59
	.DB  0x69,0x5B,0xD7,0x5C,0x44,0x5E,0xB1,0x5F
	.DB  0x1E,0x61,0x8C,0x62,0xF9,0x63,0x66,0x65
	.DB  0xD3,0x66,0x41,0x68,0xAE,0x69,0x1B,0x6B
	.DB  0x88,0x6C,0xF6,0x6D,0x63,0x6F,0xD0,0x70
	.DB  0x3D,0x72,0xAB,0x73,0x18,0x75,0x85,0x76
	.DB  0xF2,0x77,0x60,0x79,0xCD,0x7A,0x3A,0x7C
	.DB  0xA7,0x7D,0x15,0x7F,0x82,0x80,0xEF,0x81
	.DB  0x5C,0x83,0xCA,0x84,0x37,0x86,0xA4,0x87
	.DB  0x11,0x89,0x7F,0x8A,0xEC,0x8B,0x59,0x8D
	.DB  0xC6,0x8E
_sothang:
	.DB  0x0,0x0,0x2,0x0,0xE,0x0,0x1B,0x0
	.DB  0x27,0x0,0x33,0x0,0x40,0x0,0x4C,0x0
	.DB  0x59,0x0,0x65,0x0,0x71,0x0,0x7E,0x0
	.DB  0x8A,0x0,0x96,0x0,0xA3,0x0,0xAF,0x0
	.DB  0xBC,0x0,0xC8,0x0,0xD4,0x0,0xE1,0x0
	.DB  0xED,0x0,0xF9,0x0,0x6,0x1,0x12,0x1
	.DB  0x1E,0x1,0x2B,0x1,0x37,0x1,0x44,0x1
	.DB  0x50,0x1,0x5C,0x1,0x69,0x1,0x75,0x1
	.DB  0x81,0x1,0x8E,0x1,0x9A,0x1,0xA7,0x1
	.DB  0xB3,0x1,0xBF,0x1,0xCC,0x1,0xD8,0x1
	.DB  0xE4,0x1,0xF1,0x1,0xFD,0x1,0x9,0x2
	.DB  0x16,0x2,0x22,0x2,0x2F,0x2,0x3B,0x2
	.DB  0x47,0x2,0x54,0x2,0x60,0x2,0x6C,0x2
	.DB  0x79,0x2,0x85,0x2,0x92,0x2,0x9E,0x2
	.DB  0xAA,0x2,0xB7,0x2,0xC3,0x2,0xCF,0x2
	.DB  0xDC,0x2,0xE8,0x2,0xF4,0x2,0x1,0x3
	.DB  0xD,0x3,0x1A,0x3,0x26,0x3,0x32,0x3
	.DB  0x3F,0x3,0x4B,0x3,0x57,0x3,0x64,0x3
	.DB  0x70,0x3,0x7D,0x3,0x89,0x3,0x95,0x3
	.DB  0xA2,0x3,0xAE,0x3,0xBA,0x3,0xC7,0x3
	.DB  0xD3,0x3,0xDF,0x3,0xEC,0x3,0xF8,0x3
	.DB  0x5,0x4,0x11,0x4,0x1D,0x4,0x2A,0x4
	.DB  0x36,0x4,0x42,0x4,0x4F,0x4,0x5B,0x4
	.DB  0x68,0x4,0x74,0x4,0x80,0x4,0x8D,0x4
	.DB  0x99,0x4,0xA5,0x4,0xB2,0x4,0xBE,0x4
	.DB  0xCA,0x4,0xD7,0x4
_count_month:
	.DB  0x0,0x0,0x0,0x0,0x1F,0x0,0x3B,0x0
	.DB  0x5A,0x0,0x78,0x0,0x97,0x0,0xB5,0x0
	.DB  0xD4,0x0,0xF3,0x0,0x11,0x1,0x30,0x1
	.DB  0x4E,0x1
_count_month1:
	.DB  0x0,0x0,0x0,0x0,0x1F,0x0,0x3C,0x0
	.DB  0x5B,0x0,0x79,0x0,0x98,0x0,0xB6,0x0
	.DB  0xD5,0x0,0xF4,0x0,0x12,0x1,0x31,0x1
	.DB  0x4F,0x1

_0x3:
	.DB  0x1
_0x4:
	.DB  0x11
_0x5:
	.DB  0x1E
_0x6:
	.DB  0xFF,0xFF,0xFF,0xFF,0xFF,0xFF,0xFF,0xFF
	.DB  0xFF,0xFF,0xFF,0xFF,0xFF,0xFF,0xFF,0xFF
	.DB  0xFF,0xFF,0xFF,0xFF,0xFF,0xFF,0xFF,0xFF
	.DB  0xFF,0xFF,0xFF,0xFF,0xFF,0xFF,0xFF,0xFF
	.DB  0xFF,0xFF,0xFF,0xFF,0xFF,0xFF,0xFF,0xFF
	.DB  0xFF,0xFF,0xFF,0xFF,0xFF,0xFF,0xFF,0xFF
	.DB  0xFF,0xFF,0xFF,0xFF,0xFF,0xFF,0xFF,0xFF
	.DB  0xFF,0xFF,0xFF,0xFF,0xFF,0xFF,0xFF,0xFF
	.DB  0xFF,0xFF,0xFF,0xFF,0xFF,0xFF,0xFF,0xFF
	.DB  0xFF,0xFF,0xFF,0xFF,0xFF,0xFF,0xFF,0xFF
	.DB  0xFF,0xFF,0xFF,0xFF,0xFF,0xFF,0xFF,0xFF
	.DB  0xFF,0xFF,0xFF,0xFF,0xFF,0xFF,0xFF,0xFF
	.DB  0xFF,0xFF,0xFF,0xFF,0xFF,0xFF,0xFF,0xFF
	.DB  0xFF,0xFF,0xFF,0xFF,0xFF,0xFF,0xFF,0xFF
	.DB  0xFF,0xFF,0xFF,0xFF,0xFF,0xFF,0xFF,0xFF
	.DB  0xFF,0xFF,0xFF,0xFF,0xFF,0xFF,0xFF,0xFF

__GLOBAL_INI_TBL:
	.DW  0x01
	.DW  _thu
	.DW  _0x3*2

	.DW  0x01
	.DW  _nam
	.DW  _0x4*2

	.DW  0x01
	.DW  _nhietdo
	.DW  _0x5*2

	.DW  0x80
	.DW  _ma
	.DW  _0x6*2

_0xFFFFFFFF:
	.DW  0

__RESET:
	CLI
	CLR  R30
	OUT  EECR,R30

;INTERRUPT VECTORS ARE PLACED
;AT THE START OF FLASH
	LDI  R31,1
	OUT  MCUCR,R31
	OUT  MCUCR,R30

;DISABLE WATCHDOG
	LDI  R31,0x18
	WDR
	IN   R26,MCUSR
	CBR  R26,8
	OUT  MCUSR,R26
	STS  WDTCSR,R31
	STS  WDTCSR,R30

;CLEAR R2-R14
	LDI  R24,(14-2)+1
	LDI  R26,2
	CLR  R27
__CLEAR_REG:
	ST   X+,R30
	DEC  R24
	BRNE __CLEAR_REG

;CLEAR SRAM
	LDI  R24,LOW(__CLEAR_SRAM_SIZE)
	LDI  R25,HIGH(__CLEAR_SRAM_SIZE)
	LDI  R26,LOW(__SRAM_START)
	LDI  R27,HIGH(__SRAM_START)
__CLEAR_SRAM:
	ST   X+,R30
	SBIW R24,1
	BRNE __CLEAR_SRAM

;GLOBAL VARIABLES INITIALIZATION
	LDI  R30,LOW(__GLOBAL_INI_TBL*2)
	LDI  R31,HIGH(__GLOBAL_INI_TBL*2)
__GLOBAL_INI_NEXT:
	LPM  R24,Z+
	LPM  R25,Z+
	SBIW R24,0
	BREQ __GLOBAL_INI_END
	LPM  R26,Z+
	LPM  R27,Z+
	LPM  R0,Z+
	LPM  R1,Z+
	MOVW R22,R30
	MOVW R30,R0
__GLOBAL_INI_LOOP:
	LPM  R0,Z+
	ST   X+,R0
	SBIW R24,1
	BRNE __GLOBAL_INI_LOOP
	MOVW R30,R22
	RJMP __GLOBAL_INI_NEXT
__GLOBAL_INI_END:

;GPIOR0 INITIALIZATION
	LDI  R30,__GPIOR0_INIT
	OUT  GPIOR0,R30

;HARDWARE STACK POINTER INITIALIZATION
	LDI  R30,LOW(__SRAM_END-__HEAP_SIZE)
	OUT  SPL,R30
	LDI  R30,HIGH(__SRAM_END-__HEAP_SIZE)
	OUT  SPH,R30

;DATA STACK POINTER INITIALIZATION
	LDI  R28,LOW(__SRAM_START+__DSTACK_SIZE)
	LDI  R29,HIGH(__SRAM_START+__DSTACK_SIZE)

	JMP  _main

	.ESEG
	.ORG 0

	.DSEG
	.ORG 0x300

	.CSEG
;#include <mega328p.h>
	#ifndef __SLEEP_DEFINED__
	#define __SLEEP_DEFINED__
	.EQU __se_bit=0x01
	.EQU __sm_mask=0x0E
	.EQU __sm_adc_noise_red=0x02
	.EQU __sm_powerdown=0x04
	.EQU __sm_powersave=0x06
	.EQU __sm_standby=0x0C
	.EQU __sm_ext_standby=0x0E
	.SET power_ctrl_reg=smcr
	#endif
;#asm
   .equ __i2c_port=0x08 ;PORTC
   .equ __sda_bit=4
   .equ __scl_bit=5
; 0000 0006 #endasm
;#include <i2c.h>
;#include <delay.h>
;#define OE PORTD.0
;#define _A PORTD.1
;#define _B PORTD.6
;
;#define up PINC.0
;#define down PINC.1
;#define ok PINC.2
;
;#define clk PORTD.3
;#define xuat PORTD.4
;#define DS PORTD.5
;#define IR_pin PIND.2
;
;#define MelodyPin PORTB.1
;
;#define pitch_P        0
;#define pitch_C5    196
;#define pitch_Db5    200
;#define pitch_D5    203
;#define pitch_Eb5    206
;#define pitch_E5    209
;#define pitch_F5    211
;#define pitch_Gb5    214
;#define pitch_G5    216
;#define pitch_Ab5    218
;#define pitch_A5    220
;#define pitch_Bb5    222
;#define pitch_B5    224
;
;#define pitch_C6    226
;#define pitch_Db6    228
;#define pitch_D6    229
;#define pitch_Eb6    231
;#define pitch_E6    232
;#define pitch_F6    234
;#define pitch_Gb6    235
;#define pitch_G6    236
;#define pitch_Ab6    237
;#define pitch_A6     238
;#define pitch_Bb6     239
;#define pitch_B6     240
;
;#define SENSOR_DATA_IN     PINC.3
;#define SENSOR_DATA_OUT    PORTC.3
;#define SENSOR_DDR_DATA    DDRC.3
;
;unsigned int dem,dem1,chonchu;
;unsigned char dosang;    // bien eeprom luu tri gia tri sang
;unsigned int sang;  // sang co gia tri tu 0 den 1000
;unsigned char gio,phut,giay,thu=1,ngay,thang,nam=17,t1,t2,t3,t4,t5,t6,t7,giaycu;

	.DSEG
;unsigned char ngay_al,thang_al,trangthaiauto;
;unsigned int nhietdo=30;
;unsigned char giobt,phutbt,trangthaibaothuc;
;unsigned char bugio,am;
;unsigned char IRI,lenhIR,lenhIRcu,chedohoclenh;
;unsigned long giatri;
;unsigned char nut;
;unsigned char hieuungchuyengiay;
;unsigned char cobaothoat;
;unsigned char ngaysinhnhat,thangsinhnhat,cobaosinhnhat,trangthaisinhnhat;
;unsigned int qtrN,halfN, eighthN,wholeN,sixteenN,
;              thirtyTwoN, sixtyFourN,
;             sixN, twelveN,twentyFourN;
;unsigned char bodem;
;unsigned char ma[16][8]=
;{
;  {0xFF,0xFF,0xff,0xff,0xff,0xFF,0xFF,0xFF},
;  {0xFF,0xFF,0xff,0xff,0xff,0xFF,0xFF,0xFF},
;  {0xFF,0xFF,0xff,0xff,0xff,0xFF,0xFF,0xFF},
;  {0xFF,0xFF,0xff,0xff,0xff,0xFF,0xFF,0xFF},
;
;  {0xFF,0xFF,0xff,0xff,0xff,0xFF,0xFF,0xFF},
;  {0xFF,0xFF,0xff,0xff,0xff,0xFF,0xFF,0xFF},
;  {0xFF,0xFF,0xff,0xff,0xff,0xFF,0xFF,0xFF},
;  {0xFF,0xFF,0xff,0xff,0xff,0xFF,0xFF,0xFF},
;
;  {0xFF,0xFF,0xff,0xff,0xff,0xFF,0xFF,0xFF},
;  {0xFF,0xFF,0xff,0xff,0xff,0xFF,0xFF,0xFF},
;  {0xFF,0xFF,0xff,0xff,0xff,0xFF,0xFF,0xFF},
;  {0xFF,0xFF,0xff,0xff,0xff,0xFF,0xFF,0xFF},
;
;  {0xFF,0xFF,0xff,0xff,0xff,0xFF,0xFF,0xFF},
;  {0xFF,0xFF,0xff,0xff,0xff,0xFF,0xFF,0xFF},
;  {0xFF,0xFF,0xff,0xff,0xff,0xFF,0xFF,0xFF},
;  {0xFF,0xFF,0xff,0xff,0xff,0xFF,0xFF,0xFF},
;};
;flash unsigned char so[14][16]=
;{
;          {0xFF,0xFF,0x83,0x01,0x39,0x39,0x39,0x39,0x39,0x39,0x39,0x39,0x01,0x83,0xFF,0xFF},    //0
;          {0xFF,0xFF,0xE7,0xE7,0x87,0x87,0xE7,0xE7,0xE7,0xE7,0xE7,0xE7,0x81,0x81,0xFF,0xFF},    //1
;          {0xFF,0xFF,0x83,0x01,0x39,0xF9,0xF9,0xF9,0xF3,0xE7,0xCF,0x9F,0x01,0x01,0xFF,0xFF},    //2
;          {0xFF,0xFF,0x83,0x01,0x39,0xF9,0xF9,0xC1,0xC1,0xF9,0xF9,0xF9,0x01,0x83,0xFF,0xFF},    //3
;          {0xFF,0xFF,0x39,0x39,0x39,0x39,0x39,0x01,0x81,0xF9,0xF9,0xF9,0xF9,0xf9,0xFF,0xFF},    //4
;          {0xFF,0xFF,0x01,0x01,0x3F,0x3F,0x3F,0x03,0x01,0xF9,0xF9,0x79,0x01,0x83,0xFF,0xFF},    //5
;          {0xFF,0xFF,0x83,0x01,0x39,0x3F,0x3F,0x03,0x01,0x39,0x39,0x39,0x01,0x83,0xFF,0xFF},    //6
;          {0xFF,0xFF,0x83,0x01,0x39,0x39,0x39,0xF9,0xF9,0xF9,0xF9,0xF9,0xF9,0xF9,0xFF,0xFF},    //7
;          {0xFF,0xFF,0x83,0x01,0x39,0x39,0x39,0x83,0x01,0x39,0x39,0x39,0x01,0x83,0xFF,0xFF},    //8
;          {0xFF,0xFF,0x83,0x01,0x39,0x39,0x39,0x01,0x81,0xF9,0xF9,0xF9,0x01,0x83,0xFF,0xFF},    //9
;          {0xFF,0xFF,0xFF,0xFF,0xE7,0xE7,0xFF,0xFF,0xFF,0xFF,0xE7,0xE7,0xFF,0xff,0xFF,0xFF},     // hai cham
;          {0xFF,0xFF,0xff,0xff,0xff,0xFF,0xFF,0xFF,0xFF,0xFF,0xff,0xff,0xff,0xFF,0xFF,0xFF},     //k hien gi
;          {0xFF,0xFF,0xFF,0xFF,0xFF,0xFF,0xFF,0xC3,0xC3,0xFF,0xFF,0xFF,0xFF,0xFF,0xFF,0xFF}, // - 12
;          {0xFF,0xFF,0xFF,0xFF,0xFF,0xe7,0xE7,0xC81,0x81,0xE7,0xe7,0xFF,0xFF,0xFF,0xFF,0xFF}, // + 13
;
;};
;
;flash unsigned char font[16][43]=
;{                                                                   //0FFH,1FH,1FH,0FFH,0FFH,0FFH,0FFH,0FFH                                                             0BDH,7DH,0FDH,0FBH,0F7H,7H,0F7H,0F0H
;  {0xFF,0xFF,0xff,0xff,0xff,0xFC,0xFF,0xFF,0xFF,0xFF,0xff,0xFF,0xFF,0xFF,0xFF,0xFF,0xFF,0xFF,0xFF,0xFF,0xF3,0xFF,0xFF,0xFF,0xFF,0xFF,0xFF,0xFF,0xFF,0xFF,0xFF,0xFF,0xFF,0x8F,0xF1,0xFF,0xFF,0xFF,0xFF,0xFF,0xFF,0xFF,0xFF},
;  {0xFF,0xFF,0xff,0xff,0xFF,0xFe,0x7F,0xFF,0xFF,0xFF,0xff,0xFF,0xFF,0xFF,0xFF,0xFF,0xFF,0xFF,0xFF,0xFF,0xF9,0xFF,0xFF,0xFF,0xFF,0xFF,0xFF,0xFF,0xFF,0xFF,0xFF,0xFF,0xFF,0x77,0xEE,0xFF,0xFF,0xFF,0xFF,0xFF,0xFF,0xFF,0xFF},
;  {0xFF,0xFF,0xff,0xff,0xff,0xc7,0x3F,0xFF,0xFF,0xFF,0xFF,0xFF,0xFF,0xFF,0xFF,0xFF,0xFF,0xFF,0xFF,0xFF,0x3c,0xFF,0xFF,0xFF,0xFF,0xFF,0xFF,0xFF,0xFF,0xFF,0xFe,0x07,0xFF,0x77,0xee,0xFF,0xFF,0xFF,0xFF,0xFF,0xFF,0xFF,0xFF},
;  {0xFF,0xFF,0xff,0xff,0xff,0x83,0xff,0xff,0xFF,0xFF,0xFF,0xFF,0xFF,0xFF,0xFF,0xFF,0xFF,0xFF,0xFF,0xFC,0x0F,0xFF,0xFF,0xFF,0xFF,0xFF,0xFF,0xFF,0xfF,0xFF,0xFe,0x07,0xFF,0x8F,0xf1,0xFF,0xFF,0xFF,0xFF,0xFF,0xFF,0xFF,0xFF},
;
;  {0xC0,0x00,0x00,0x7F,0xFC,0x00,0xff,0xff,0xFF,0xFF,0xFC,0x00,0x00,0xFF,0xFC,0x00,0x0e,0x00,0x03,0xF0,0x03,0xFF,0xFC,0x00,0x03,0xFF,0xFF,0xFF,0xfF,0xFF,0xFe,0x07,0xFF,0xe0,0x0F,0xFF,0xFF,0xFF,0xFF,0xFF,0xFF,0xFF,0xFF},
;  {0xC0,0x00,0x00,0x1F,0xF8,0x70,0x7f,0xff,0xFF,0xFF,0xc0,0x00,0x00,0xFF,0xFC,0x00,0x0e,0x00,0x03,0xE1,0xc1,0xFF,0xFC,0x00,0x03,0xFF,0xFF,0xFF,0xff,0xFF,0xFe,0x07,0xFF,0xdF,0xF7,0xFF,0xFF,0xFF,0xFF,0xFF,0xFF,0xFF,0xFF},
;  {0xFC,0x0F,0xe0,0x0f,0xfF,0xFF,0xff,0xff,0xFF,0xFF,0x00,0x3F,0x01,0xFF,0xFF,0xC0,0x3f,0xC0,0x3F,0xFF,0xFF,0xFF,0xFF,0x80,0x3f,0xFF,0xFF,0xFF,0xff,0xFF,0xFe,0x07,0xFF,0xbF,0xFb,0xFF,0xFF,0xFF,0xFF,0xFF,0xFF,0xFF,0xFF},
;  {0xFC,0x0F,0xf0,0x07,0xF8,0x01,0xFc,0x01,0x80,0x7F,0x00,0xff,0x80,0xFF,0xFF,0xC0,0x7f,0xc0,0x7F,0xE0,0x07,0xFF,0xFF,0x80,0x7F,0xFF,0xFF,0x80,0x3f,0xF8,0x0e,0x07,0xFF,0xbF,0xdd,0xFF,0xFF,0xFF,0xFF,0xFF,0xFF,0xFF,0xFF},
;
;  {0xFC,0x0F,0xF8,0x03,0xC0,0x00,0x3F,0x00,0x00,0x1F,0x00,0xFF,0xFF,0xFF,0xFF,0x80,0x7f,0x80,0x7F,0x00,0x00,0xFF,0xFF,0x80,0x7F,0xFF,0xFC,0x00,0x07,0xe0,0x00,0x07,0xFF,0xBF,0xbd,0xFF,0xFF,0xFF,0xFF,0xFF,0xFF,0xFF,0xFF},
;  {0xE0,0x03,0xF0,0x03,0x80,0x70,0x1F,0x00,0xF0,0x1c,0x01,0xE0,0x00,0x1F,0xFF,0x80,0x00,0x00,0x7E,0x03,0xC0,0x7F,0xFF,0x80,0x7F,0xFF,0xF0,0x1e,0x03,0xc0,0x38,0x07,0xFF,0xA0,0x7d,0xFF,0xFF,0xFF,0xFF,0xFF,0xFF,0xFF,0xFF},
;  {0xE0,0x03,0xF8,0x03,0x01,0xF8,0x0F,0x01,0xF0,0x1C,0x01,0xC0,0x00,0x1F,0xFF,0x80,0x00,0x00,0x7C,0x07,0xF0,0x3F,0xFF,0x80,0x7F,0xFF,0xE0,0x3e,0x01,0x80,0x7c,0x07,0xFF,0xBF,0xFd,0xFF,0xFF,0xFF,0xFF,0xFF,0xFF,0xFF,0xFF},
;  {0xFC,0x0F,0xF0,0x07,0x01,0xF8,0x0F,0x01,0xF0,0x1c,0x01,0xFC,0x03,0xFF,0xFF,0x80,0x7f,0x80,0x7C,0x07,0xF0,0x3F,0xFF,0x80,0x7F,0xC0,0x60,0x00,0x01,0x80,0x7c,0x07,0xFF,0xDF,0xFb,0xFF,0xFF,0xFF,0xFF,0xFF,0xFF,0xFF,0xFF},
;
;  {0xFC,0x0F,0xF0,0x07,0x01,0xF8,0x1F,0x01,0xF0,0x3E,0x00,0xF8,0x03,0xFF,0xFF,0x80,0x7f,0x80,0x7C,0x07,0xF0,0x7F,0xFF,0x80,0x7F,0xC0,0xE0,0x7F,0xFF,0x80,0x7c,0x07,0xFF,0xEF,0xF7,0xFF,0xFF,0xFF,0xFF,0xFF,0xFF,0xFF,0xFF},
;  {0xFC,0x0F,0xC0,0x1F,0x00,0xE0,0x1F,0x03,0xF0,0x3E,0x00,0x78,0x03,0xFF,0xFF,0x80,0x0f,0x80,0xFC,0x03,0x80,0x7F,0xFF,0x80,0xFF,0xC0,0xE0,0x3f,0x83,0x80,0x78,0x0F,0xFF,0xF0,0x07,0xFF,0xFF,0xFF,0xFF,0xFF,0xFF,0xFF,0xFF},
;  {0x00,0x00,0x00,0x7F,0x80,0x00,0x70,0x00,0x80,0x07,0x80,0x00,0x03,0xFF,0xF0,0x00,0x0f,0x00,0x0E,0x00,0x01,0xFF,0xF0,0x00,0x00,0x00,0xF0,0x00,0x07,0xC0,0x00,0x01,0xFF,0xFF,0xF7,0xFF,0xFF,0xFF,0xFF,0xFF,0xFF,0xFF,0xFF},
;  {0x00,0x00,0x01,0xFF,0xF0,0x03,0xF0,0x00,0x80,0x07,0xF8,0x03,0x03,0xFF,0xF0,0x00,0x0f,0x00,0x0F,0xC0,0x0F,0xFF,0xF0,0x00,0x00,0x00,0xFE,0x00,0x3f,0xF8,0x08,0x01,0xFF,0x0F,0xF0,0xFF,0xFF,0xFF,0xFF,0xFF,0xFF,0xFF,0xFF}
;
;};
;
;flash unsigned char chu[50][16]=
;{
;     {0xFF,0xFF,0xFF,0xFF,0xE1,0xE1,0xC9,0xC9,0xC9,0x99,0x81,0x99,0x39,0xFF,0xFF,0xFF},   //a  0
;     {0xFF,0xFF,0xFF,0xFF,0xC1,0xCC,0x9C,0x9C,0x81,0x9C,0x9C,0x3C,0x01,0xFF,0xFF,0xFF},   //b  1
;     {0xFF,0xFF,0xFF,0xFF,0xC3,0x99,0x99,0x3F,0x3F,0x3F,0x39,0x39,0x83,0xFF,0xFF,0xFF},   //c  2
;     {0xFF,0xFF,0xFF,0xFF,0xC1,0x8C,0x9C,0x9C,0x9C,0x9C,0x99,0x39,0x03,0xFF,0xFF,0xFF},   //d  3
;     {0xFF,0xFF,0xFF,0xFF,0xC1,0xCF,0x9F,0x9F,0x83,0x9F,0x9F,0x3F,0x03,0xFF,0xFF,0xFF},   //e  4
;     {0xFF,0xFF,0xFF,0xFF,0xC1,0xCF,0x9F,0x9F,0x83,0x9F,0x9F,0x3F,0x3F,0xFF,0xFF,0xFF},   //f  5
;     {0xFF,0xFF,0xFF,0xFF,0xC3,0x99,0x99,0x3F,0x21,0x39,0x39,0x31,0x83,0xFF,0xFF,0xFF},   //g  6
;     {0xFF,0xFF,0xFF,0xFF,0xCC,0xCC,0x99,0x99,0x81,0x99,0x99,0x33,0x33,0xFF,0xFF,0xFF},   //h  7
;     {0xFF,0xFF,0xFF,0xFf,0xF3,0xFF,0xE7,0xE7,0xE7,0xE7,0xE7,0xCF,0xCF,0xFF,0xFF,0xFF},   //i  8
;     {0xFF,0xFF,0xFF,0xFF,0xF9,0xF9,0xF3,0xF3,0xF3,0xF3,0xF3,0x27,0x8F,0xFF,0xFF,0xFF},   //j  9
;     {0xFF,0xFF,0xFF,0xFF,0xCC,0xC9,0x93,0x87,0x87,0x93,0x93,0x39,0x39,0xFF,0xFF,0xFF},   //k  10
;     {0xFF,0xFF,0xFF,0xFF,0xCF,0xCF,0x9F,0x9F,0x9F,0x9F,0x9F,0x3F,0x03,0xFF,0xFF,0xFF},   //l  11
;     {0xFF,0xFF,0xFF,0xFF,0xBE,0x9C,0x82,0xA2,0xB6,0xBE,0xBE,0x3C,0x3C,0xFF,0xFF,0xFF},   //m  12
;     {0xFF,0xFF,0xFF,0xFF,0xDC,0xDC,0x89,0x89,0xA9,0xA1,0xA1,0x33,0x33,0xFF,0xFF,0xFF},   //n  13
;     {0xFF,0xFF,0xFF,0xFF,0xC3,0x99,0x99,0xB9,0x39,0x39,0x3B,0x33,0x87,0xFF,0xFF,0xFF},   //o  14
;     {0xFF,0xFF,0xFF,0xFF,0xC1,0xCC,0x9C,0x9C,0x9C,0x81,0x9F,0x3F,0x3F,0xFF,0xFF,0xFF},   //p  15
;     {0xFF,0xFF,0xFF,0xFF,0xC3,0x99,0x99,0x39,0x39,0x39,0x2B,0x33,0x87,0xFF,0xFF,0xFF},   //q  16
;     {0xFF,0xFF,0xFF,0xFF,0xC1,0xCC,0x9C,0x9C,0x83,0x93,0x93,0x39,0x39,0xFF,0xFF,0xFF},   //r  17
;     {0xFF,0xFF,0xFF,0xFF,0xE3,0xC9,0xC9,0xCF,0xE7,0xF3,0x93,0x93,0xC7,0xFF,0xFF,0xFF},   //s  18
;     {0xFF,0xFF,0xFF,0xFF,0x01,0xE7,0xCF,0xCF,0xCF,0xCF,0xCF,0x9F,0x9F,0xFF,0xFF,0xFF},   //t  19
;     {0xFF,0xFF,0xFF,0xFF,0x9C,0x9C,0x39,0x39,0x39,0x39,0x39,0x33,0x87,0xFF,0xFF,0xFF},   //u  20
;     {0xFF,0xFF,0xFF,0xFF,0x39,0x33,0x33,0x37,0x27,0x2F,0x0F,0x1F,0x1F,0xFF,0xFF,0xFF},   //v  21
;     {0xFF,0xFF,0xFF,0xFF,0x6E,0x6C,0x4D,0x49,0x4B,0x23,0x27,0x27,0x6F,0xFF,0xFF,0xFF},   //w  22
;     {0xFF,0xFF,0xFF,0xFF,0x3D,0x1B,0x93,0x93,0xC7,0xCF,0xCF,0x9F,0x9F,0xFF,0xFF,0xFF},   //x  23
;     {0xFF,0xFF,0xFF,0xFF,0x3D,0x1B,0x93,0x93,0xC7,0xCF,0xCF,0x9F,0x9F,0xFF,0xFF,0xFF},   //y  24
;     {0xFF,0xFF,0xFF,0xFF,0x81,0xF3,0xF3,0xE7,0xC7,0xCF,0x9F,0x9F,0x01,0xFF,0xFF,0xFF},   //z  25
;     {0xFc,0xF9,0xf3,0xFF,0xE1,0xE1,0xC9,0xC9,0xC9,0x99,0x81,0x99,0x39,0xFF,0xFF,0xFF},   //a   26
;     {0xFF,0xFF,0xFF,0xFF,0xFF,0xFF,0xFF,0xFF,0xFF,0xFF,0xFF,0xE7,0xE7,0xFF,0xFF,0xFF},   //.   27
;     {0xFF,0xFF,0xFF,0xFF,0xE7,0xE7,0xFF,0xFF,0xFF,0xFF,0xE7,0xE7,0xFF,0xff,0xFF,0xFF},     // hai cham 28
;     {0xFF,0xff,0xFF,0xFF,0xFF,0xff,0xFF,0xFF,0xFF,0xff,0xFF,0xFF,0xFF,0xff,0xFF,0xFF},     // k hien gi 29
;     {0x07,0x07,0x07,0x67,0x67,0x67,0x61,0x66,0x66,0x61,0x67,0x67,0x67,0x07,0x07,0x07},   //30 nut keo
;     {0x07,0x07,0x07,0x07,0x07,0x07,0x01,0x06,0x06,0x01,0x07,0x07,0x07,0x07,0x07,0x07},   //31 nut keo 2
;     {0x9F,0xCF,0xE5,0xFC,0xC0,0x98,0x99,0xB9,0x39,0x39,0x39,0x33,0x87,0xFF,0xFF,0xFF},    //32 owf
;     {0xF9,0xf3,0xe7,0xFF,0x9C,0x9C,0x39,0x39,0x39,0x39,0x39,0x33,0x87,0xFF,0xFF,0xFF},   //us  33
;     {0xF3,0xE1,0xCC,0xFF,0xE1,0xE1,0xC9,0xC9,0xC9,0x99,0x81,0x99,0x39,0xFF,0xFF,0xFF},   //aa  34
;     {0xe7,0xf3,0xf9,0xFF,0xE1,0xE1,0xC9,0xC9,0xC9,0x99,0x81,0x99,0x39,0xFF,0xFF,0xFF},   //af  35
;     {0xfc,0xf9,0xf3,0xFF,0xE1,0xE1,0xC9,0xC9,0xC9,0x99,0x81,0x99,0x39,0xFF,0xFF,0xFF},   //as  36
;     {0xcc,0xe0,0xf1,0xFF,0xE1,0xE1,0xC9,0xC9,0xC9,0x99,0x81,0x99,0x39,0xFF,0xFF,0xFF},   //aw  37
;     {0xFF,0xFF,0xFF,0xFF,0xFF,0xFF,0xFF,0xC3,0xC3,0xFF,0xFF,0xFF,0xFF,0xFF,0xFF,0xFF}, // - 38
;     {0xF3,0xC9,0x9C,0xFF,0xC3,0x99,0x99,0xB9,0x39,0x39,0x3B,0x33,0x87,0xFF,0xFF,0xFF},   //oo  39
;     {0xF3,0xE1,0xCC,0xFF,0xE1,0xE1,0xC9,0xC9,0xC9,0x99,0x81,0x99,0x39,0xFF,0xe7,0xe7},   //aaj  40
;     {0xFF,0xE7,0xDB,0xDB,0xE7,0xff,0xFF,0xFF,0xFF,0xff,0xFF,0xFF,0xFF,0xff,0xFF,0xFF},   // ki hieu do 41
;     {0xFF,0xFF,0xff,0xFF,0xFF,0xFF,0xC3,0xFF,0xC3,0xff,0xFF,0xFF,0xFF,0xff,0xFF,0xFF},  // = 42
;     {0x9F,0xCF,0xE7,0xFE,0xC2,0x98,0x99,0xB9,0x39,0x39,0x3B,0x33,0x87,0xFF,0xFF,0xFF},  // owf 43
;     {0xF3,0xC9,0x9C,0xFF,0xC3,0x99,0x99,0xB9,0x39,0x39,0x3B,0x33,0x87,0xff,0xcf,0xcf},   //oj  44
;     {0xFF,0xFF,0xFF,0xFF,0xC1,0x8C,0x9C,0x0C,0x0C,0x9C,0x99,0x39,0x03,0xFF,0xFF,0xFF},   //dd  45
;     {0x9f,0xcf,0xe7,0xFF,0x9C,0x9C,0x39,0x39,0x39,0x39,0x39,0x33,0x87,0xFF,0xFF,0xFF},   //uf  46
;     {0xF3,0xE1,0xCC,0xFF,0xC1,0xCF,0x9F,0x9F,0x83,0x9F,0x9F,0x3F,0x03,0xFF,0xcf,0xcf},   //eej  47
;     {0xF3,0xFd,0xFb,0xFF,0xE1,0xE1,0xC9,0xC9,0xC9,0x99,0x81,0x99,0x39,0xFF,0xFF,0xFF},   //ar  48
;     {0xff,0xff,0xff,0xFF,0xE1,0xE1,0xC9,0xC9,0xC9,0x99,0x81,0x99,0x39,0xFF,0xe7,0xe7},   //aaj  49
;};
;
;flash unsigned char thanhtruotIphone[16][16][4]=
;{
;0x00,0x00,0x00,0x00,0x07,0xFF,0xFF,0xE0,0x09,0xFE,0x00,0x10,0x12,0x01,0x00,0x08,
;0x24,0x00,0x80,0x04,0x28,0x00,0x40,0x04,0x28,0x00,0x40,0x04,0x28,0x00,0x40,0x04,
;0x28,0x00,0x40,0x04,0x28,0x00,0x40,0x04,0x28,0x00,0x40,0x04,0x24,0x00,0x80,0x04,
;0x12,0x01,0x00,0x08,0x09,0xFE,0x00,0x10,0x07,0xFF,0xFF,0xE0,0x00,0x00,0x00,0x00,
;0x00,0x00,0x00,0x00,0x07,0xFF,0xFF,0xE0,0x0C,0x03,0xFF,0xF0,0x18,0x01,0xFF,0xF8,
;0x30,0x00,0xFF,0xFC,0x30,0x00,0xFF,0xFC,0x30,0x00,0xFF,0xFC,0x30,0x00,0xFF,0xFC,
;0x30,0x00,0xFF,0xFC,0x30,0x00,0xFF,0xFC,0x30,0x00,0xFF,0xFC,0x30,0x00,0xFF,0xFC,
;0x18,0x01,0xFF,0xF8,0x0C,0x03,0xFF,0xF0,0x07,0xFF,0xFF,0xE0,0x00,0x00,0x00,0x00,
;0x00,0x00,0x00,0x00,0x07,0xFF,0xFF,0xE0,0x0E,0x01,0xFF,0xF0,0x1C,0x00,0xFF,0xF8,
;0x38,0x00,0x7F,0xFC,0x38,0x00,0x7F,0xFC,0x38,0x00,0x7F,0xFC,0x38,0x00,0x7F,0xFC,
;0x38,0x00,0x7F,0xFC,0x38,0x00,0x7F,0xFC,0x38,0x00,0x7F,0xFC,0x38,0x00,0x7F,0xFC,
;0x1C,0x00,0xFF,0xF8,0x0E,0x01,0xFF,0xF0,0x07,0xFF,0xFF,0xE0,0x00,0x00,0x00,0x00,
;0x00,0x00,0x00,0x00,0x07,0xFF,0xFF,0xE0,0x0F,0x00,0xFF,0xF0,0x1E,0x00,0x7F,0xF8,
;0x3C,0x00,0x3F,0xFC,0x3C,0x00,0x3F,0xFC,0x3C,0x00,0x3F,0xFC,0x3C,0x00,0x3F,0xFC,
;0x3C,0x00,0x3F,0xFC,0x3C,0x00,0x3F,0xFC,0x3C,0x00,0x3F,0xFC,0x3C,0x00,0x3F,0xFC,
;0x1E,0x00,0x7F,0xF8,0x0F,0x00,0xFF,0xF0,0x07,0xFF,0xFF,0xE0,0x00,0x00,0x00,0x00,
;0x00,0x00,0x00,0x00,0x07,0xFF,0xFF,0xE0,0x0F,0xC0,0x3F,0xF0,0x1F,0x80,0x1F,0xF8,
;0x3F,0x00,0x0F,0xFC,0x3F,0x00,0x0F,0xFC,0x3F,0x00,0x0F,0xFC,0x3F,0x00,0x0F,0xFC,
;0x3F,0x00,0x0F,0xFC,0x3F,0x00,0x0F,0xFC,0x3F,0x00,0x0F,0xFC,0x3F,0x00,0x0F,0xFC,
;0x1F,0x80,0x1F,0xF8,0x0F,0xC0,0x3F,0xF0,0x07,0xFF,0xFF,0xE0,0x00,0x00,0x00,0x00,
;0x00,0x00,0x00,0x00,0x07,0xFF,0xFF,0xE0,0x0F,0xC0,0x3F,0xF0,0x1F,0x80,0x1F,0xF8,
;0x3F,0x00,0x0F,0xFC,0x3F,0x00,0x0F,0xFC,0x3F,0x00,0x0F,0xFC,0x3F,0x00,0x0F,0xFC,
;0x3F,0x00,0x0F,0xFC,0x3F,0x00,0x0F,0xFC,0x3F,0x00,0x0F,0xFC,0x3F,0x00,0x0F,0xFC,
;0x1F,0x80,0x1F,0xF8,0x0F,0xC0,0x3F,0xF0,0x07,0xFF,0xFF,0xE0,0x00,0x00,0x00,0x00,
;0x00,0x00,0x00,0x00,0x07,0xFF,0xFF,0xE0,0x0F,0xE0,0x1F,0xF0,0x1F,0xC0,0x0F,0xF8,
;0x3F,0x80,0x07,0xFC,0x3F,0x80,0x07,0xFC,0x3F,0x80,0x07,0xFC,0x3F,0x80,0x07,0xFC,
;0x3F,0x80,0x07,0xFC,0x3F,0x80,0x07,0xFC,0x3F,0x80,0x07,0xFC,0x3F,0x80,0x07,0xFC,
;0x1F,0xC0,0x0F,0xF8,0x0F,0xE0,0x1F,0xF0,0x07,0xFF,0xFF,0xE0,0x00,0x00,0x00,0x00,
;0x00,0x00,0x00,0x00,0x07,0xFF,0xFF,0xE0,0x0F,0xF0,0x0F,0xF0,0x1F,0xE0,0x07,0xF8,
;0x3F,0xC0,0x03,0xFC,0x3F,0xC0,0x03,0xFC,0x3F,0xC0,0x03,0xFC,0x3F,0xC0,0x03,0xFC,
;0x3F,0xC0,0x03,0xFC,0x3F,0xC0,0x03,0xFC,0x3F,0xC0,0x03,0xFC,0x3F,0xC0,0x03,0xFC,
;0x1F,0xE0,0x07,0xF8,0x0F,0xF0,0x0F,0xF0,0x07,0xFF,0xFF,0xE0,0x00,0x00,0x00,0x00,
;0x00,0x00,0x00,0x00,0x07,0xFF,0xFF,0xE0,0x0F,0xF8,0x07,0xF0,0x1F,0xF0,0x03,0xF8,
;0x3F,0xE0,0x01,0xFC,0x3F,0xE0,0x01,0xFC,0x3F,0xE0,0x01,0xFC,0x3F,0xE0,0x01,0xFC,
;0x3F,0xE0,0x01,0xFC,0x3F,0xE0,0x01,0xFC,0x3F,0xE0,0x01,0xFC,0x3F,0xE0,0x01,0xFC,
;0x1F,0xF0,0x03,0xF8,0x0F,0xF8,0x07,0xF0,0x07,0xFF,0xFF,0xE0,0x00,0x00,0x00,0x00,
;0x00,0x00,0x00,0x00,0x07,0xFF,0xFF,0xE0,0x0F,0xFC,0x03,0xF0,0x1F,0xF8,0x01,0xF8,
;0x3F,0xF0,0x00,0xFC,0x3F,0xF0,0x00,0xFC,0x3F,0xF0,0x00,0xFC,0x3F,0xF0,0x00,0xFC,
;0x3F,0xF0,0x00,0xFC,0x3F,0xF0,0x00,0xFC,0x3F,0xF0,0x00,0xFC,0x3F,0xF0,0x00,0xFC,
;0x1F,0xF8,0x01,0xF8,0x0F,0xFC,0x03,0xF0,0x07,0xFF,0xFF,0xE0,0x00,0x00,0x00,0x00,
;0x00,0x00,0x00,0x00,0x07,0xFF,0xFF,0xE0,0x0F,0xFE,0x01,0xF0,0x1F,0xFC,0x00,0xF8,
;0x3F,0xF8,0x00,0x7C,0x3F,0xF8,0x00,0x7C,0x3F,0xF8,0x00,0x7C,0x3F,0xF8,0x00,0x7C,
;0x3F,0xF8,0x00,0x7C,0x3F,0xF8,0x00,0x7C,0x3F,0xF8,0x00,0x7C,0x3F,0xF8,0x00,0x7C,
;0x1F,0xFC,0x00,0xF8,0x0F,0xFE,0x01,0xF0,0x07,0xFF,0xFF,0xE0,0x00,0x00,0x00,0x00,
;0x00,0x00,0x00,0x00,0x07,0xFF,0xFF,0xE0,0x0F,0xFF,0x00,0xF0,0x1F,0xFE,0x00,0x78,
;0x3F,0xFC,0x00,0x3C,0x3F,0xFC,0x00,0x3C,0x3F,0xFC,0x00,0x3C,0x3F,0xFC,0x00,0x3C,
;0x3F,0xFC,0x00,0x3C,0x3F,0xFC,0x00,0x3C,0x3F,0xFC,0x00,0x3C,0x3F,0xFC,0x00,0x3C,
;0x1F,0xFE,0x00,0x78,0x0F,0xFF,0x00,0xF0,0x07,0xFF,0xFF,0xE0,0x00,0x00,0x00,0x00,
;0x00,0x00,0x00,0x00,0x07,0xFF,0xFF,0xE0,0x0F,0xFF,0x80,0x70,0x1F,0xFF,0x00,0x38,
;0x3F,0xFE,0x00,0x1C,0x3F,0xFE,0x00,0x1C,0x3F,0xFE,0x00,0x1C,0x3F,0xFE,0x00,0x1C,
;0x3F,0xFE,0x00,0x1C,0x3F,0xFE,0x00,0x1C,0x3F,0xFE,0x00,0x1C,0x3F,0xFE,0x00,0x1C,
;0x1F,0xFF,0x00,0x38,0x0F,0xFF,0x80,0x70,0x07,0xFF,0xFF,0xE0,0x00,0x00,0x00,0x00,
;0x00,0x00,0x00,0x00,0x07,0xFF,0xFF,0xE0,0x0F,0xFF,0xC0,0x30,0x1F,0xFF,0x80,0x18,
;0x3F,0xFF,0x00,0x0C,0x3F,0xFF,0x00,0x0C,0x3F,0xFF,0x00,0x0C,0x3F,0xFF,0x00,0x0C,
;0x3F,0xFF,0x00,0x0C,0x3F,0xFF,0x00,0x0C,0x3F,0xFF,0x00,0x0C,0x3F,0xFF,0x00,0x0C,
;0x1F,0xFF,0x80,0x18,0x0F,0xFF,0xC0,0x30,0x07,0xFF,0xFF,0xE0,0x00,0x00,0x00,0x00,
;0x00,0x00,0x00,0x00,0x07,0xFF,0xFF,0xE0,0x0F,0xFF,0xE0,0x10,0x1F,0xFF,0xC0,0x08,
;0x3F,0xFF,0x80,0x04,0x3F,0xFF,0x80,0x04,0x3F,0xFF,0x80,0x04,0x3F,0xFF,0x80,0x04,
;0x3F,0xFF,0x80,0x04,0x3F,0xFF,0x80,0x04,0x3F,0xFF,0x80,0x04,0x3F,0xFF,0x80,0x04,
;0x1F,0xFF,0xC0,0x08,0x0F,0xFF,0xE0,0x10,0x07,0xFF,0xFF,0xE0,0x00,0x00,0x00,0x00,
;0x00,0x00,0x00,0x00,0x07,0xFF,0xFF,0xE0,0x0F,0xFF,0xE0,0x10,0x1F,0xFF,0xC0,0x08,
;0x3F,0xFF,0x80,0x04,0x3F,0xFF,0x80,0x04,0x3F,0xFF,0x80,0x04,0x3F,0xFF,0x80,0x04,
;0x3F,0xFF,0x80,0x04,0x3F,0xFF,0x80,0x04,0x3F,0xFF,0x80,0x04,0x3F,0xFF,0x80,0x04,
;0x1F,0xFF,0xC0,0x08,0x0F,0xFF,0xE0,0x10,0x07,0xFF,0xFF,0xE0,0x00,0x00,0x00,0x00,
;};
;flash unsigned char lich[]={
;0x1b,0x0c
;,0x11,0x12,0x03,0x04,0x15,0x06,0x07,0x18,0x09,0x1a,0x1b,0x0c                     //14
;,0x11,0x12,0x03,0x14,0x04,0x15,0x06,0x07,0x18,0x09,0x1a,0x0b,0x1c                //27
;,0x11,0x12,0x03,0x14,0x05,0x16,0x07,0x08,0x19,0x0a,0x1b,0x0c                     //39
;,0x11,0x12,0x03,0x14,0x15,0x06,0x17,0x08,0x09,0x1a,0x0b,0x1c                     //51
;,0x01,0x12,0x02,0x13,0x14,0x05,0x16,0x07,0x18,0x09,0x1a,0x0b,0x1c                //64
;,0x01,0x12,0x03,0x14,0x05,0x16,0x17,0x08,0x19,0x0a,0x1b,0x0c//2005               //76
;,0x11,0x02,0x13,0x04,0x05,0x16,0x17,0x07,0x18,0x19,0x0a,0x1b,0x0c //2006         //89
;,0x11,0x02,0x13,0x04,0x05,0x16,0x07,0x18,0x19,0x1a,0x0b,0x1c                     //101
;,0x11,0x02,0x03,0x14,0x05,0x06,0x17,0x08,0x19,0x0a,0x1b,0x1c                     //113
;,0x11,0x12,0x03,0x04,0x15,0x05,0x06,0x17,0x08,0x19,0x0a,0x1b,0x1c
;,0x11,0x02,0x13,0x04,0x15,0x06,0x07,0x18,0x09,0x1A,0x0B,0x1C///2010              //138
;,0x11,0x02,0x13,0x14,0x05,0x16,0x07,0x08,0x19,0x0A,0x1B,0x0C                     //150
;,0x11,0x02,0x13,0x14,0x04,0x15,0x06,0x17,0x08,0x19,0x0a,0x1b,0x0c                //163
;,0x11,0x02,0x13,0x04,0x15,0x16,0x07,0x18,0x09,0x1a,0x0b,0x1c                     //175
;,0x01,0x12,0x03,0x14,0x05,0x16,0x07,0x18,0x19,0x09,0x1a,0x0b,0x1c                //188
;,0x01,0x12,0x03,0x04,0x15,0x06,0x17,0x18,0x19,0x0a,0x1b,0x0c                     //200
;,0x11,0x02,0x13,0x04,0x05,0x16,0x07,0x18,0x19,0x0a,0x1b,0x1c                     //212
;,0x01,0x12,0x03,0x14,0x05,0x06,0x16,0x07,0x18,0x09,0x1a,0x1b,0x1c//2017          //225
;,0x01,0x12,0x03,0x14,0x05,0x06,0x17,0x08,0x19,0x0a,0x1b,0x1c                     //237
;,0x11,0x02,0x13,0x04,0x15,0x06,0x07,0x18,0x09,0x0a,0x1b,0x1c
;,0x01,0x12,0x13,0x14,0x04,0x15,0x06,0x07,0x18,0x09,0x1a,0x0b,0x1c                //262
;};
;flash unsigned int count_year1[]={ 0,59,413,797,1151,1506,1890,2244,2628,2983,3337,3721,4075,4429,4813,5168,5552,5906,6261,6645,6999,7353,7737,8091,8446,8830,9184,9568,9922,10276,10660,11015,11369,11753,12108,12492,12846,13200,13584,13938,14292,14676,15031,15386,15770,16124,16508,16862,17216,17600,17954,18309,18693,19048,19431,19786,20140,20523,20878,21232,21616,21971,22325,22709,23063,23447,23801,24156,24540,24894,25249,25633,25987,26371,26725,27079,27463,27818,28172,28556,28911,29265,29649,30003,30387,30741,31096,31480,31834,32189,32572,32926,33310,33664,34019,34403,34758,35112,35496,35850,36204,36588};
;flash unsigned int count_year[]={ 25 ,391 ,756 ,1121 ,1486 ,1852 ,2217 ,2582 ,2947 ,3313 ,3678 ,4043 ,4408 ,4774 ,5139 ,5504 ,5869 ,6235 ,6600 ,6965 ,7330 ,7696 ,8061 ,8426 ,8791 ,9157 ,9522 ,9887 ,10252 ,10618 ,10983 ,11348 ,11713 ,12079 ,12444 ,12809 ,13174 ,13540 ,13905 ,14270 ,14635 ,15001 ,15366 ,15731 ,16096 ,16462 ,16827 ,17192 ,17557 ,17923 ,18288 ,18653 ,19018 ,19384 ,19749 ,20114 ,20479 ,20845 ,21210 ,21575 ,21940 ,22306 ,22671 ,23036 ,23401 ,23767 ,24132 ,24497 ,24862 ,25228 ,25593 ,25958 ,26323 ,26689 ,27054 ,27419 ,27784 ,28150 ,28515 ,28880 ,29245 ,29611 ,29976 ,30341 ,30706 ,31072 ,31437 ,31802 ,32167 ,32533 ,32898 ,33263 ,33628 ,33994 ,34359 ,34724 ,35089 ,35455 ,35820 ,36185 ,36550 };
;flash unsigned int sothang[]={ 0,2,14,27,39,51,64,76,89,101,113,126,138,150,163,175,188,200,212,225,237,249,262,274,286,299,311,324,336,348,361,373,385,398,410,423,435,447,460,472,484,497,509,521,534,546,559,571,583,596,608,620,633,645,658,670,682,695,707,719,732,744,756,769,781,794,806,818,831,843,855,868,880,893,905,917,930,942,954,967,979,991,1004,1016,1029,1041,1053,1066,1078,1090,1103,1115,1128,1140,1152,1165,1177,1189,1202,1214,1226,1239};
;flash unsigned int count_month[] ={ 0,0,31,59,90,120,151,181,212,243,273,304,334};
;flash unsigned int count_month1[]={ 0,0,31,60,91,121,152,182,213,244,274,305,335};
;
;void hienthi();
;void laythoigiantrongds1();
;void laydosang();
;void Delay10MC(unsigned char a)
; 0000 0125 {

	.CSEG
_Delay10MC:
; 0000 0126   a=a*10;       // toc do phat
;	a -> Y+0
	LD   R30,Y
	LDI  R26,LOW(10)
	MULS R30,R26
	MOVW R30,R0
	ST   Y,R30
; 0000 0127   while(a--);
_0x7:
	LD   R30,Y
	SUBI R30,LOW(1)
	ST   Y,R30
	SUBI R30,-LOW(1)
	BRNE _0x7
; 0000 0128 }
	RJMP _0x200000A
;interrupt [TIM0_OVF] void Ngat_Timer_0()
; 0000 012A {
_Ngat_Timer_0:
	ST   -Y,R30
; 0000 012B     MelodyPin = ~MelodyPin;
	SBIS 0x5,1
	RJMP _0xA
	CBI  0x5,1
	RJMP _0xB
_0xA:
	SBI  0x5,1
_0xB:
; 0000 012C     TCNT0=bodem;
	LDS  R30,_bodem
	OUT  0x26,R30
; 0000 012D }
	LD   R30,Y+
	RETI
;void MelodyTempo(int Tempo)
; 0000 012F {
_MelodyTempo:
; 0000 0130     qtrN = ((60000/Tempo));
;	Tempo -> Y+0
	LD   R30,Y
	LDD  R31,Y+1
	LDI  R26,LOW(60000)
	LDI  R27,HIGH(60000)
	CALL __DIVW21U
	STS  _qtrN,R30
	STS  _qtrN+1,R31
; 0000 0131     wholeN = qtrN*4;
	LDS  R26,_qtrN
	LDS  R27,_qtrN+1
	LDI  R30,LOW(4)
	CALL __MULB1W2U
	STS  _wholeN,R30
	STS  _wholeN+1,R31
; 0000 0132     halfN = (qtrN*2);
	LDI  R30,LOW(2)
	CALL __MULB1W2U
	STS  _halfN,R30
	STS  _halfN+1,R31
; 0000 0133     eighthN = (qtrN/2);
	CALL SUBOPT_0x0
	LSR  R31
	ROR  R30
	STS  _eighthN,R30
	STS  _eighthN+1,R31
; 0000 0134     sixteenN = (qtrN/4);
	CALL SUBOPT_0x0
	CALL __LSRW2
	STS  _sixteenN,R30
	STS  _sixteenN+1,R31
; 0000 0135     thirtyTwoN = (qtrN/8);
	CALL SUBOPT_0x0
	CALL __LSRW3
	STS  _thirtyTwoN,R30
	STS  _thirtyTwoN+1,R31
; 0000 0136     sixtyFourN = (qtrN/16);
	CALL SUBOPT_0x0
	CALL __LSRW4
	STS  _sixtyFourN,R30
	STS  _sixtyFourN+1,R31
; 0000 0137     sixN = (wholeN/6);
	CALL SUBOPT_0x1
	LDI  R30,LOW(6)
	LDI  R31,HIGH(6)
	CALL __DIVW21U
	STS  _sixN,R30
	STS  _sixN+1,R31
; 0000 0138     twelveN = (wholeN/12);
	CALL SUBOPT_0x1
	LDI  R30,LOW(12)
	LDI  R31,HIGH(12)
	CALL __DIVW21U
	STS  _twelveN,R30
	STS  _twelveN+1,R31
; 0000 0139     twentyFourN = (wholeN/24);
	CALL SUBOPT_0x1
	LDI  R30,LOW(24)
	LDI  R31,HIGH(24)
	CALL __DIVW21U
	STS  _twentyFourN,R30
	STS  _twentyFourN+1,R31
; 0000 013A }
	RJMP _0x200000C
;void PlayNote(const unsigned char PitchL)
; 0000 013C {
_PlayNote:
; 0000 013D     bodem = PitchL;
;	PitchL -> Y+0
	LD   R30,Y
	STS  _bodem,R30
; 0000 013E     TCNT0 = PitchL;
	OUT  0x26,R30
; 0000 013F     TCCR0B=0x04; //255
	LDI  R30,LOW(4)
	OUT  0x25,R30
; 0000 0140 }
	RJMP _0x200000A
;
;void EndNote(void){
; 0000 0142 void EndNote(void){
_EndNote:
; 0000 0143 
; 0000 0144     TCCR0B=0x00; // ngung dem
	LDI  R30,LOW(0)
	OUT  0x25,R30
; 0000 0145     MelodyPin = 1;
	SBI  0x5,1
; 0000 0146 }
	RET
;
;void delayms(unsigned int ms)
; 0000 0149 {
_delayms:
; 0000 014A     for(;ms>0;ms--)
;	ms -> Y+0
_0xF:
	LD   R26,Y
	LDD  R27,Y+1
	CALL __CPW02
	BRSH _0x10
; 0000 014B         Delay10MC(100);
	LDI  R30,LOW(100)
	ST   -Y,R30
	RCALL _Delay10MC
	LD   R30,Y
	LDD  R31,Y+1
	SBIW R30,1
	ST   Y,R30
	STD  Y+1,R31
	RJMP _0xF
_0x10:
; 0000 014C }
	RJMP _0x200000C
;
;void Melodyplay(const int Pitch, unsigned int interval)     // not nhac, dan cach
; 0000 014F {
_Melodyplay:
; 0000 0150     if(Pitch!=0)
;	Pitch -> Y+2
;	interval -> Y+0
	LDD  R30,Y+2
	LDD  R31,Y+2+1
	SBIW R30,0
	BREQ _0x11
; 0000 0151         PlayNote(Pitch);
	LDD  R30,Y+2
	ST   -Y,R30
	RCALL _PlayNote
; 0000 0152     delayms(interval);
_0x11:
	LD   R30,Y
	LDD  R31,Y+1
	ST   -Y,R31
	ST   -Y,R30
	RCALL _delayms
; 0000 0153     EndNote();
	RCALL _EndNote
; 0000 0154 }
	ADIW R28,4
	RET
;
;void chucmungbuoisang()
; 0000 0157 {
_chucmungbuoisang:
; 0000 0158      MelodyTempo(13);
	LDI  R30,LOW(13)
	LDI  R31,HIGH(13)
	CALL SUBOPT_0x2
; 0000 0159      Melodyplay(pitch_Db5, qtrN);
; 0000 015A      Melodyplay(pitch_Eb5, qtrN);
	CALL SUBOPT_0x3
; 0000 015B      Melodyplay(pitch_F5, qtrN);
; 0000 015C      Melodyplay(pitch_Db5, qtrN);
	CALL SUBOPT_0x4
; 0000 015D 
; 0000 015E      Melodyplay(pitch_Db5, qtrN);
	CALL SUBOPT_0x5
	CALL SUBOPT_0x4
; 0000 015F      Melodyplay(pitch_Eb5, qtrN);
	CALL SUBOPT_0x3
; 0000 0160      Melodyplay(pitch_F5, qtrN);
; 0000 0161      Melodyplay(pitch_Db5, halfN);
	CALL SUBOPT_0x6
; 0000 0162 
; 0000 0163      Melodyplay(pitch_F5, qtrN);
; 0000 0164      Melodyplay(pitch_Gb5, qtrN);
	CALL SUBOPT_0x7
; 0000 0165      Melodyplay(pitch_Ab5, halfN);
	CALL SUBOPT_0x8
	CALL SUBOPT_0x6
; 0000 0166 
; 0000 0167      Melodyplay(pitch_F5, qtrN);
; 0000 0168      Melodyplay(pitch_Gb5, qtrN);
	CALL SUBOPT_0x7
; 0000 0169      Melodyplay(pitch_Ab5, halfN);
	CALL SUBOPT_0x8
	CALL SUBOPT_0x9
; 0000 016A 
; 0000 016B      Melodyplay(pitch_Ab5, qtrN);
	CALL SUBOPT_0x4
; 0000 016C      Melodyplay(pitch_Bb5, qtrN);
	CALL SUBOPT_0xA
; 0000 016D      Melodyplay(pitch_Ab5, qtrN);
	CALL SUBOPT_0x8
	CALL SUBOPT_0x4
; 0000 016E      Melodyplay(pitch_Gb5, qtrN);
	CALL SUBOPT_0x7
; 0000 016F      Melodyplay(pitch_F5, qtrN);
	CALL SUBOPT_0xB
; 0000 0170      Melodyplay(pitch_Db5, halfN);
	CALL SUBOPT_0x5
	CALL SUBOPT_0x9
; 0000 0171 
; 0000 0172      Melodyplay(pitch_Ab5, qtrN);
	CALL SUBOPT_0x4
; 0000 0173      Melodyplay(pitch_Bb5, qtrN);
	CALL SUBOPT_0xA
; 0000 0174      Melodyplay(pitch_Ab5, qtrN);
	CALL SUBOPT_0x8
	CALL SUBOPT_0x4
; 0000 0175      Melodyplay(pitch_Gb5, qtrN);
	CALL SUBOPT_0x7
; 0000 0176      Melodyplay(pitch_F5, qtrN);
	CALL SUBOPT_0xB
; 0000 0177      Melodyplay(pitch_Db5, halfN);
	CALL SUBOPT_0x5
	CALL SUBOPT_0xC
; 0000 0178 
; 0000 0179      Melodyplay(pitch_C6, qtrN);
; 0000 017A      Melodyplay(pitch_G5, qtrN);
	CALL SUBOPT_0xD
; 0000 017B      Melodyplay(pitch_C6, halfN);
	LDI  R30,LOW(226)
	LDI  R31,HIGH(226)
	ST   -Y,R31
	ST   -Y,R30
	CALL SUBOPT_0xC
; 0000 017C 
; 0000 017D      Melodyplay(pitch_C6, qtrN);
; 0000 017E      Melodyplay(pitch_G5, qtrN);
	CALL SUBOPT_0xD
; 0000 017F      Melodyplay(pitch_C6, halfN);
	LDI  R30,LOW(226)
	LDI  R31,HIGH(226)
	CALL SUBOPT_0xE
	RJMP _0x200000D
; 0000 0180 }
;
;void chucmungsinhnhat()
; 0000 0183 {
_chucmungsinhnhat:
; 0000 0184        MelodyTempo(15);
	LDI  R30,LOW(15)
	LDI  R31,HIGH(15)
	CALL SUBOPT_0x2
; 0000 0185    Melodyplay(pitch_Db5, qtrN);
; 0000 0186    Melodyplay(pitch_Db5, qtrN);
	CALL SUBOPT_0x5
	CALL SUBOPT_0x4
; 0000 0187    Melodyplay(pitch_Eb5, qtrN);
	CALL SUBOPT_0xF
; 0000 0188    Melodyplay(pitch_Db5, qtrN);
	CALL SUBOPT_0x5
	CALL SUBOPT_0x4
; 0000 0189    Melodyplay(pitch_Gb5, qtrN);
	CALL SUBOPT_0x7
; 0000 018A    Melodyplay(pitch_F5,  halfN);
	LDI  R30,LOW(211)
	LDI  R31,HIGH(211)
	CALL SUBOPT_0xE
	CALL SUBOPT_0x10
; 0000 018B 
; 0000 018C    Melodyplay(pitch_Db5, qtrN);
	CALL SUBOPT_0x4
; 0000 018D    Melodyplay(pitch_Db5, qtrN);
	CALL SUBOPT_0x5
	CALL SUBOPT_0x4
; 0000 018E    Melodyplay(pitch_Eb5, qtrN);
	CALL SUBOPT_0xF
; 0000 018F    Melodyplay(pitch_Db5, qtrN);
	CALL SUBOPT_0x5
	CALL SUBOPT_0x4
; 0000 0190    Melodyplay(pitch_Ab5, qtrN);
	CALL SUBOPT_0x8
	CALL SUBOPT_0x4
; 0000 0191    Melodyplay(pitch_F5, halfN);
	LDI  R30,LOW(211)
	LDI  R31,HIGH(211)
	CALL SUBOPT_0xE
	CALL SUBOPT_0x10
; 0000 0192 
; 0000 0193    Melodyplay(pitch_Db5, qtrN);
	CALL SUBOPT_0x4
; 0000 0194    Melodyplay(pitch_Db5, qtrN);
	CALL SUBOPT_0x5
	CALL SUBOPT_0x4
; 0000 0195    Melodyplay(pitch_Db6, qtrN);
	LDI  R30,LOW(228)
	LDI  R31,HIGH(228)
	ST   -Y,R31
	ST   -Y,R30
	CALL SUBOPT_0x4
; 0000 0196    Melodyplay(pitch_Bb5, qtrN);
	CALL SUBOPT_0xA
; 0000 0197    Melodyplay(pitch_F5,  qtrN);
	CALL SUBOPT_0xB
; 0000 0198    Melodyplay(pitch_F5, qtrN);
	CALL SUBOPT_0xB
; 0000 0199    Melodyplay(pitch_Eb5, halfN);
	LDI  R30,LOW(206)
	LDI  R31,HIGH(206)
	CALL SUBOPT_0xE
	CALL SUBOPT_0x11
; 0000 019A 
; 0000 019B    Melodyplay(pitch_Bb5, eighthN );
	CALL SUBOPT_0x11
; 0000 019C    Melodyplay(pitch_Bb5, eighthN );
	CALL SUBOPT_0x11
; 0000 019D    Melodyplay(pitch_Bb5, eighthN);
	ST   -Y,R31
	ST   -Y,R30
	RCALL _Melodyplay
; 0000 019E    Melodyplay(pitch_F5, qtrN);
	CALL SUBOPT_0xB
; 0000 019F    Melodyplay(pitch_Gb5, qtrN);
	CALL SUBOPT_0x7
; 0000 01A0    Melodyplay(pitch_F5, qtrN);
	LDI  R30,LOW(211)
	LDI  R31,HIGH(211)
	ST   -Y,R31
	ST   -Y,R30
	CALL SUBOPT_0x0
_0x200000D:
	ST   -Y,R31
	ST   -Y,R30
	RCALL _Melodyplay
; 0000 01A1 }
	RET
;
;
;//-------------------------Ket thuc phan Phat nhac---------------//
;
;//----------------------------Chuong trinh doc nhiet do | Copy cua Led Dac Dam cho nhanh :P  ---------//
;unsigned char reset_ds18b20(){
; 0000 01A7 unsigned char reset_ds18b20(){
_reset_ds18b20:
; 0000 01A8     unsigned char result=1;
; 0000 01A9     SENSOR_DATA_OUT=1;
	ST   -Y,R17
;	result -> R17
	LDI  R17,1
	SBI  0x8,3
; 0000 01AA     SENSOR_DATA_OUT=0;
	CBI  0x8,3
; 0000 01AB     delay_us(480);
	__DELAY_USW 1920
; 0000 01AC     SENSOR_DATA_OUT=1;
	SBI  0x8,3
; 0000 01AD     SENSOR_DDR_DATA=0;
	CBI  0x7,3
; 0000 01AE     delay_us(70);
	__DELAY_USW 280
; 0000 01AF     result=SENSOR_DATA_IN;
	LDI  R30,0
	SBIC 0x6,3
	LDI  R30,1
	MOV  R17,R30
; 0000 01B0     delay_us(400);
	__DELAY_USW 1600
; 0000 01B1     SENSOR_DDR_DATA=1;
	SBI  0x7,3
; 0000 01B2     return result;
	MOV  R30,R17
	RJMP _0x2000008
; 0000 01B3 }
;
;void write_bit_ds18b20(unsigned char b){
; 0000 01B5 void write_bit_ds18b20(unsigned char b){
_write_bit_ds18b20:
; 0000 01B6     SENSOR_DATA_OUT=0;
;	b -> Y+0
	CBI  0x8,3
; 0000 01B7     delay_us(6);
	__DELAY_USB 32
; 0000 01B8     SENSOR_DATA_OUT=b;
	LD   R30,Y
	CPI  R30,0
	BRNE _0x1E
	CBI  0x8,3
	RJMP _0x1F
_0x1E:
	SBI  0x8,3
_0x1F:
; 0000 01B9     delay_us(54);
	__DELAY_USW 216
; 0000 01BA     SENSOR_DATA_OUT=1;
	SBI  0x8,3
; 0000 01BB     delay_us(10);
	__DELAY_USB 53
; 0000 01BC }
	RJMP _0x200000A
;
;unsigned char read_bit_ds18b20(){
; 0000 01BE unsigned char read_bit_ds18b20(){
_read_bit_ds18b20:
; 0000 01BF     unsigned char result;
; 0000 01C0     SENSOR_DATA_OUT=0;
	ST   -Y,R17
;	result -> R17
	CBI  0x8,3
; 0000 01C1     delay_us(6);
	__DELAY_USB 32
; 0000 01C2     SENSOR_DATA_OUT=1;
	SBI  0x8,3
; 0000 01C3     SENSOR_DDR_DATA=0;
	CBI  0x7,3
; 0000 01C4     delay_us(9);
	__DELAY_USB 48
; 0000 01C5     result=SENSOR_DATA_IN;
	LDI  R30,0
	SBIC 0x6,3
	LDI  R30,1
	MOV  R17,R30
; 0000 01C6     delay_us(55);
	__DELAY_USW 220
; 0000 01C7     SENSOR_DDR_DATA=1;
	SBI  0x7,3
; 0000 01C8     return result;
	MOV  R30,R17
	RJMP _0x2000008
; 0000 01C9 }
;
;void write_byte_ds18b20(unsigned char byte){
; 0000 01CB void write_byte_ds18b20(unsigned char byte){
_write_byte_ds18b20:
; 0000 01CC     unsigned char i;
; 0000 01CD     for(i=0;i<8;i++){
	ST   -Y,R17
;	byte -> Y+1
;	i -> R17
	LDI  R17,LOW(0)
_0x2B:
	CPI  R17,8
	BRSH _0x2C
; 0000 01CE         write_bit_ds18b20(byte & 0x01);
	LDD  R30,Y+1
	ANDI R30,LOW(0x1)
	ST   -Y,R30
	RCALL _write_bit_ds18b20
; 0000 01CF         byte>>=1;
	LDD  R30,Y+1
	CALL SUBOPT_0x12
	STD  Y+1,R30
; 0000 01D0     }
	SUBI R17,-1
	RJMP _0x2B
_0x2C:
; 0000 01D1 }
	RJMP _0x200000B
;
;unsigned char read_byte_ds18b20(){
; 0000 01D3 unsigned char read_byte_ds18b20(){
_read_byte_ds18b20:
; 0000 01D4     unsigned char i, result=0;
; 0000 01D5     for(i=0;i<8;i++){
	ST   -Y,R17
	ST   -Y,R16
;	i -> R17
;	result -> R16
	LDI  R16,0
	LDI  R17,LOW(0)
_0x2E:
	CPI  R17,8
	BRSH _0x2F
; 0000 01D6         result>>=1;
	MOV  R30,R16
	CALL SUBOPT_0x12
	MOV  R16,R30
; 0000 01D7         result|=(read_bit_ds18b20()<<7);
	RCALL _read_bit_ds18b20
	ROR  R30
	LDI  R30,0
	ROR  R30
	OR   R16,R30
; 0000 01D8     }
	SUBI R17,-1
	RJMP _0x2E
_0x2F:
; 0000 01D9     return result;
	MOV  R30,R16
	RJMP _0x2000009
; 0000 01DA }
;
;void int_ds18b20(){
; 0000 01DC void int_ds18b20(){
_int_ds18b20:
; 0000 01DD     while(reset_ds18b20());
_0x30:
	RCALL _reset_ds18b20
	CPI  R30,0
	BRNE _0x30
; 0000 01DE     write_byte_ds18b20(0xCC);
	LDI  R30,LOW(204)
	ST   -Y,R30
	RCALL _write_byte_ds18b20
; 0000 01DF     write_byte_ds18b20(0x44);
	LDI  R30,LOW(68)
	ST   -Y,R30
	RCALL _write_byte_ds18b20
; 0000 01E0 }
	RET
;
;void laynhietdo(){
; 0000 01E2 void laynhietdo(){
_laynhietdo:
; 0000 01E3     unsigned char a=0;
; 0000 01E4     unsigned char b=0;
; 0000 01E5     SENSOR_DDR_DATA=1;
	ST   -Y,R17
	ST   -Y,R16
;	a -> R17
;	b -> R16
	LDI  R17,0
	LDI  R16,0
	SBI  0x7,3
; 0000 01E6     while(reset_ds18b20());
_0x35:
	RCALL _reset_ds18b20
	CPI  R30,0
	BRNE _0x35
; 0000 01E7     write_byte_ds18b20(0xCC);
	LDI  R30,LOW(204)
	ST   -Y,R30
	RCALL _write_byte_ds18b20
; 0000 01E8     write_byte_ds18b20(0xBE);
	LDI  R30,LOW(190)
	ST   -Y,R30
	RCALL _write_byte_ds18b20
; 0000 01E9     a=read_byte_ds18b20();
	RCALL _read_byte_ds18b20
	MOV  R17,R30
; 0000 01EA     b=read_byte_ds18b20();
	RCALL _read_byte_ds18b20
	MOV  R16,R30
; 0000 01EB     nhietdo=((b*256+a)>>4);
	MOV  R26,R16
	LDI  R27,0
	LDI  R30,LOW(256)
	LDI  R31,HIGH(256)
	CALL __MULW12
	MOVW R26,R30
	CLR  R30
	ADD  R26,R17
	ADC  R27,R30
	MOVW R30,R26
	CALL __ASRW4
	STS  _nhietdo,R30
	STS  _nhietdo+1,R31
; 0000 01EC     int_ds18b20();
	RCALL _int_ds18b20
; 0000 01ED }
	RJMP _0x2000009
;
;
;//----------------------------------END-----------------------------------------------
;
;void delay(unsigned int t)        //delay_us
; 0000 01F3 {
_delay:
; 0000 01F4   for(;t>0;t--)
;	t -> Y+0
_0x39:
	LD   R26,Y
	LDD  R27,Y+1
	CALL __CPW02
	BRSH _0x3A
; 0000 01F5   {
; 0000 01F6    ;
; 0000 01F7   }
	LD   R30,Y
	LDD  R31,Y+1
	SBIW R30,1
	ST   Y,R30
	STD  Y+1,R31
	RJMP _0x39
_0x3A:
; 0000 01F8 }
	RJMP _0x200000C
;// ham ghi du lieu vao ds1307
;void ghids(unsigned char add, unsigned char dat)
; 0000 01FB {
_ghids:
; 0000 01FC     i2c_start(); // bat dau ghi
;	add -> Y+1
;	dat -> Y+0
	CALL SUBOPT_0x13
; 0000 01FD     i2c_write(0xd0); //0xd0 la dia chi cua ds1307
; 0000 01FE     i2c_write(add);    // gia tri can ghi
; 0000 01FF     i2c_write(((dat/10)<<4)|(dat%10));      // do du lieu trong ds la BCD nen ta can chuyen ca gia tri sang BCD ( day cau lenh chuyen du lieu sang BCD)
	LD   R26,Y
	CALL SUBOPT_0x14
	SWAP R30
	ANDI R30,0xF0
	MOV  R22,R30
	LD   R26,Y
	CALL SUBOPT_0x15
	OR   R30,R22
	ST   -Y,R30
	CALL _i2c_write
; 0000 0200     i2c_stop();     // ket thuc qua trinh truyen du lieu
	CALL _i2c_stop
; 0000 0201 }
	RJMP _0x200000C
;void ghidulieu(unsigned char add, unsigned char dat)
; 0000 0203 {
_ghidulieu:
; 0000 0204     i2c_start(); // bat dau ghi
;	add -> Y+1
;	dat -> Y+0
	CALL SUBOPT_0x13
; 0000 0205     i2c_write(0xd0); //0xd0 la dia chi cua ds1307
; 0000 0206     i2c_write(add);    // gia tri can ghi
; 0000 0207     i2c_write(dat);
	LD   R30,Y
	ST   -Y,R30
	CALL _i2c_write
; 0000 0208     i2c_stop();     // ket thuc qua trinh truyen du lieu
	CALL _i2c_stop
; 0000 0209 }
	RJMP _0x200000C
;// Ham doc du lieu thoi gian trong ds
;unsigned char docds(unsigned char add)
; 0000 020C {
_docds:
; 0000 020D     unsigned char dat;
; 0000 020E 
; 0000 020F     i2c_start();   // bat dau doc
	ST   -Y,R17
;	add -> Y+1
;	dat -> R17
	CALL SUBOPT_0x13
; 0000 0210 
; 0000 0211     i2c_write(0xd0);     // dau tien gui lenh ghi du lieu(ghi dia chi can lay du lieu trong DS1307)
; 0000 0212     i2c_write(add); // Dia chi ma ta muon doc ( vi du, muon doc giay thi ta ghi dia chi 0x00)
; 0000 0213     i2c_start();      // bat dau doc du lieu
	CALL SUBOPT_0x16
; 0000 0214     i2c_write(0xd1);      // gui ma lenh doc du lieu tu dia chi(add)
; 0000 0215     dat = i2c_read(0);      // doc xong thi luu gia tri da doc dc vao dat
; 0000 0216     i2c_stop();            // ket thuc qua trinh doc du lieu
; 0000 0217     dat = (dat & 0x0f) + (dat>>4)*10;     // du lieu doc ra o dang BCD nen chuyen sang he 10
	ANDI R30,LOW(0xF)
	MOV  R22,R30
	CALL SUBOPT_0x17
	CALL __ASRW4
	LDI  R26,LOW(10)
	MULS R30,R26
	MOVW R30,R0
	ADD  R30,R22
	MOV  R17,R30
; 0000 0218     return (dat);  // tra ve gia tri da doc duoc
	MOV  R30,R17
	RJMP _0x200000B
; 0000 0219 }
;unsigned char docdulieu(unsigned char add)
; 0000 021B {
_docdulieu:
; 0000 021C     unsigned char dat;
; 0000 021D 
; 0000 021E     i2c_start();   // bat dau doc
	ST   -Y,R17
;	add -> Y+1
;	dat -> R17
	CALL SUBOPT_0x13
; 0000 021F 
; 0000 0220     i2c_write(0xd0);     // dau tien gui lenh ghi du lieu(ghi dia chi can lay du lieu trong DS1307)
; 0000 0221     i2c_write(add); // Dia chi ma ta muon doc ( vi du, muon doc giay thi ta ghi dia chi 0x00)
; 0000 0222     i2c_start();      // bat dau doc du lieu
	CALL SUBOPT_0x16
; 0000 0223     i2c_write(0xd1);      // gui ma lenh doc du lieu tu dia chi(add)
; 0000 0224     dat = i2c_read(0);      // doc xong thi luu gia tri da doc dc vao dat
; 0000 0225     i2c_stop();            // ket thuc qua trinh doc du lieu
; 0000 0226     return (dat);  // tra ve gia tri da doc duoc
	RJMP _0x200000B
; 0000 0227 }
;void chuyen(unsigned char b)
; 0000 0229 {
_chuyen:
; 0000 022A     unsigned char i;
; 0000 022B     for(i=0;i<8;i++)
	ST   -Y,R17
;	b -> Y+1
;	i -> R17
	LDI  R17,LOW(0)
_0x3C:
	CPI  R17,8
	BRSH _0x3D
; 0000 022C     {
; 0000 022D         DS = b & (0x80>>i);        // Lay tung Bit cua byte b gui ra DS, lay bit MSB truoc
	MOV  R30,R17
	LDI  R26,LOW(128)
	CALL __LSRB12
	LDD  R26,Y+1
	AND  R30,R26
	BRNE _0x3E
	CBI  0xB,5
	RJMP _0x3F
_0x3E:
	SBI  0xB,5
_0x3F:
; 0000 022E 
; 0000 022F         // Tao xung dich du lieu
; 0000 0230             clk = 0;
	CBI  0xB,3
; 0000 0231             clk = 1;
	SBI  0xB,3
; 0000 0232     }
	SUBI R17,-1
	RJMP _0x3C
_0x3D:
; 0000 0233 }
_0x200000B:
	LDD  R17,Y+0
_0x200000C:
	ADIW R28,2
	RET
;
;// dich ma vao hc595
;void hang(unsigned char sohang)
; 0000 0237 {
_hang:
; 0000 0238  switch(sohang)
;	sohang -> Y+0
	LD   R30,Y
	CALL SUBOPT_0x18
; 0000 0239  {
; 0000 023A   case 1:{_A=0;_B=0;OE=1;break;}
	BRNE _0x47
	CBI  0xB,1
	CBI  0xB,6
	RJMP _0x655
; 0000 023B   case 2:{_A=1;_B=0;OE=1;break;}
_0x47:
	CPI  R30,LOW(0x2)
	LDI  R26,HIGH(0x2)
	CPC  R31,R26
	BRNE _0x4E
	SBI  0xB,1
	CBI  0xB,6
	RJMP _0x655
; 0000 023C   case 3:{_A=0;_B=1;OE=1;break;}
_0x4E:
	CPI  R30,LOW(0x3)
	LDI  R26,HIGH(0x3)
	CPC  R31,R26
	BRNE _0x55
	CBI  0xB,1
	RJMP _0x656
; 0000 023D   case 4:{_A=1;_B=1;OE=1;break;}
_0x55:
	CPI  R30,LOW(0x4)
	LDI  R26,HIGH(0x4)
	CPC  R31,R26
	BRNE _0x46
	SBI  0xB,1
_0x656:
	SBI  0xB,6
_0x655:
	SBI  0xB,0
; 0000 023E  }
_0x46:
; 0000 023F }
_0x200000A:
	ADIW R28,1
	RET
;
;// xuat toan bo bien trong mang ma[][] ra ngoai + quet led + bam xung chan OE de dieu chinh do sang
;void hienthi()
; 0000 0243 {
_hienthi:
; 0000 0244 
; 0000 0245    unsigned char a,b,x;
; 0000 0246     for(x=1;x<5;x++)
	CALL __SAVELOCR4
;	a -> R17
;	b -> R16
;	x -> R19
	LDI  R19,LOW(1)
_0x64:
	CPI  R19,5
	BRSH _0x65
; 0000 0247     {
; 0000 0248        for(a=0;a<8;a++)
	LDI  R17,LOW(0)
_0x67:
	CPI  R17,8
	BRSH _0x68
; 0000 0249        {
; 0000 024A           for(b=16;b>0;b=b-4)
	LDI  R16,LOW(16)
_0x6A:
	CPI  R16,1
	BRLO _0x6B
; 0000 024B           {
; 0000 024C            chuyen(ma[b-x][a]);
	MOV  R26,R16
	CLR  R27
	CALL SUBOPT_0x19
	CALL SUBOPT_0x1A
	CALL SUBOPT_0x1B
	MOVW R26,R30
	CLR  R30
	ADD  R26,R17
	ADC  R27,R30
	LD   R30,X
	ST   -Y,R30
	RCALL _chuyen
; 0000 024D           }
	CALL SUBOPT_0x1C
	SBIW R30,4
	MOV  R16,R30
	RJMP _0x6A
_0x6B:
; 0000 024E        }
	SUBI R17,-1
	RJMP _0x67
_0x68:
; 0000 024F    xuat=0;
	CBI  0xB,4
; 0000 0250    xuat=1;
	SBI  0xB,4
; 0000 0251    hang(5-x);
	CALL SUBOPT_0x19
	LDI  R26,LOW(5)
	LDI  R27,HIGH(5)
	SUB  R26,R30
	SBC  R27,R31
	ST   -Y,R26
	RCALL _hang
; 0000 0252    delay(sang);
	ST   -Y,R12
	ST   -Y,R11
	RCALL _delay
; 0000 0253    OE=0;
	CBI  0xB,0
; 0000 0254    delay(1000-sang);
	LDI  R30,LOW(1000)
	LDI  R31,HIGH(1000)
	SUB  R30,R11
	SBC  R31,R12
	ST   -Y,R31
	ST   -Y,R30
	RCALL _delay
; 0000 0255    }
	SUBI R19,-1
	RJMP _0x64
_0x65:
; 0000 0256 }
	RJMP _0x2000007
;void xoamanhinh()
; 0000 0258 {
_xoamanhinh:
; 0000 0259  unsigned char x,y;
; 0000 025A  for(x=0;x<16;x++)
	ST   -Y,R17
	ST   -Y,R16
;	x -> R17
;	y -> R16
	LDI  R17,LOW(0)
_0x73:
	CPI  R17,16
	BRSH _0x74
; 0000 025B  {
; 0000 025C   for(y=0;y<8;y++)
	LDI  R16,LOW(0)
_0x76:
	CPI  R16,8
	BRSH _0x77
; 0000 025D   {
; 0000 025E    ma[x][y]=0xff;
	CALL SUBOPT_0x17
	CALL SUBOPT_0x1B
	CALL SUBOPT_0x1D
	LDI  R30,LOW(255)
	ST   X,R30
; 0000 025F   }
	SUBI R16,-1
	RJMP _0x76
_0x77:
; 0000 0260  }
	SUBI R17,-1
	RJMP _0x73
_0x74:
; 0000 0261  hienthi();
	RCALL _hienthi
; 0000 0262 }
_0x2000009:
	LD   R16,Y+
	LD   R17,Y+
	RET
;
;//void ghichu()
;//{
;//  unsigned char a,b,byte6,byte7;
;//  unsigned char d;
;//  d=giatri;
;//
;//(((d>>4)&0x0F)<=9)?(byte6=(d>>4)&0x0F):(byte6='A'+((d>>4)&0x0F)-0x0A);
;//((d&0x0F)<=9)?(byte7=d&0x0F):(byte7='A'+(d&0x0F)-0x0A);
;//
;//  for(a=1;a<17;a++)
;//  {
;//   if(byte6 <=9){ma[a-1][6]=so[byte6][a-1];} else { ma[a-1][6]=chu[byte6-65][a-1]; }
;//   if(byte7 <=9){ma[a-1][7]=so[byte7][a-1];} else { ma[a-1][7]=chu[byte7-65][a-1]; }
;//  }
;//}
;//
;
;void ghithoigian()
; 0000 0276 {
_ghithoigian:
; 0000 0277  unsigned char a;
; 0000 0278   for(a=1;a<17;a++)
	ST   -Y,R17
;	a -> R17
	LDI  R17,LOW(1)
_0x79:
	CPI  R17,17
	BRLO PC+3
	JMP _0x7A
; 0000 0279   {
; 0000 027A     ma[a-1][0]=so[gio/10][a-1];
	CALL SUBOPT_0x17
	SBIW R30,1
	CALL SUBOPT_0x1B
	MOVW R22,R30
	MOV  R26,R9
	CALL SUBOPT_0x14
	CALL SUBOPT_0x1E
	CALL SUBOPT_0x1F
; 0000 027B     ma[a-1][1]=so[gio%10][a-1];
	CALL SUBOPT_0x20
	MOVW R22,R30
	MOV  R26,R9
	CALL SUBOPT_0x15
	CALL SUBOPT_0x1E
	CALL SUBOPT_0x1F
; 0000 027C     ma[a-1][2]=so[10][a-1];
	CALL SUBOPT_0x21
	__ADDW1MN _ma,2
	CALL SUBOPT_0x22
; 0000 027D     ma[a-1][3]=so[phut/10][a-1];
	CALL SUBOPT_0x23
	CALL SUBOPT_0x24
	CALL SUBOPT_0x1E
	CALL SUBOPT_0x1F
; 0000 027E     ma[a-1][4]=so[phut%10][a-1];
	CALL SUBOPT_0x25
	CALL SUBOPT_0x26
	CALL SUBOPT_0x1E
	CALL SUBOPT_0x1F
; 0000 027F     ma[a-1][5]=so[10][a-1];
	CALL SUBOPT_0x21
	__ADDW1MN _ma,5
	CALL SUBOPT_0x22
; 0000 0280     ma[a-1][6]=so[giay/10][a-1];
	CALL SUBOPT_0x27
	CALL SUBOPT_0x28
	CALL SUBOPT_0x1E
	CALL SUBOPT_0x1F
; 0000 0281     ma[a-1][7]=so[giay%10][a-1];
	CALL SUBOPT_0x29
	CALL SUBOPT_0x2A
	CALL SUBOPT_0x1E
	CALL SUBOPT_0x2B
; 0000 0282   }
	SUBI R17,-1
	RJMP _0x79
_0x7A:
; 0000 0283 }
_0x2000008:
	LD   R17,Y+
	RET
;
;void thanhtruotbat()
; 0000 0286 {
_thanhtruotbat:
; 0000 0287  unsigned char a,b,c;
; 0000 0288  EIMSK=0x00;  // cam ngat ngoai 0  <at328>
	CALL SUBOPT_0x2C
;	a -> R17
;	b -> R16
;	c -> R19
; 0000 0289 
; 0000 028A  for(b=0;b<15;b++)
	LDI  R16,LOW(0)
_0x7C:
	CPI  R16,15
	BRLO PC+3
	JMP _0x7D
; 0000 028B  {
; 0000 028C      for(a=16;a>0;a--)
	LDI  R17,LOW(16)
_0x7F:
	CPI  R17,1
	BRLO _0x80
; 0000 028D       {
; 0000 028E        ma[a-1][4]=~thanhtruotIphone[b][a-1][0];
	CALL SUBOPT_0x17
	CALL SUBOPT_0x21
	__ADDW1MN _ma,4
	MOVW R0,R30
	CALL SUBOPT_0x1C
	CALL SUBOPT_0x2D
	CALL SUBOPT_0x2E
; 0000 028F        ma[a-1][5]=~thanhtruotIphone[b][a-1][1];
	CALL SUBOPT_0x21
	__ADDW1MN _ma,5
	MOVW R0,R30
	CALL SUBOPT_0x1C
	CALL SUBOPT_0x2D
	ADIW R30,1
	CALL SUBOPT_0x2E
; 0000 0290        ma[a-1][6]=~thanhtruotIphone[b][a-1][2];
	CALL SUBOPT_0x21
	__ADDW1MN _ma,6
	MOVW R0,R30
	CALL SUBOPT_0x1C
	CALL SUBOPT_0x2D
	ADIW R30,2
	CALL SUBOPT_0x2E
; 0000 0291        ma[a-1][7]=~thanhtruotIphone[b][a-1][3];
	CALL SUBOPT_0x21
	__ADDW1MN _ma,7
	MOVW R0,R30
	CALL SUBOPT_0x1C
	CALL SUBOPT_0x2D
	ADIW R30,3
	LPM  R30,Z
	COM  R30
	MOVW R26,R0
	ST   X,R30
; 0000 0292       }
	SUBI R17,1
	RJMP _0x7F
_0x80:
; 0000 0293       for(c=0;c<3;c++){hienthi();}
	LDI  R19,LOW(0)
_0x82:
	CPI  R19,3
	BRSH _0x83
	RCALL _hienthi
	SUBI R19,-1
	RJMP _0x82
_0x83:
; 0000 0294 
; 0000 0295   }
	SUBI R16,-1
	RJMP _0x7C
_0x7D:
; 0000 0296   EIMSK=0x01;  // cho phep ngat ngoai 0  <at328>
	LDI  R30,LOW(1)
	OUT  0x1D,R30
; 0000 0297  }
	RJMP _0x2000007
;
;void thanhtruottat()
; 0000 029A {
_thanhtruottat:
; 0000 029B   unsigned char a,b,c;
; 0000 029C    EIMSK=0x00;  // cam ngat ngoai 0  <at328>
	CALL SUBOPT_0x2C
;	a -> R17
;	b -> R16
;	c -> R19
; 0000 029D  for(b=16;b>0;b--)
	LDI  R16,LOW(16)
_0x85:
	CPI  R16,1
	BRSH PC+3
	JMP _0x86
; 0000 029E  {
; 0000 029F      for(a=16;a>0;a--)
	LDI  R17,LOW(16)
_0x88:
	CPI  R17,1
	BRLO _0x89
; 0000 02A0       {
; 0000 02A1        ma[a-1][4]=~thanhtruotIphone[b-1][a-1][0];
	CALL SUBOPT_0x17
	CALL SUBOPT_0x21
	__ADDW1MN _ma,4
	MOVW R0,R30
	CALL SUBOPT_0x1C
	SBIW R30,1
	CALL SUBOPT_0x2D
	CALL SUBOPT_0x2E
; 0000 02A2        ma[a-1][5]=~thanhtruotIphone[b-1][a-1][1];
	CALL SUBOPT_0x21
	__ADDW1MN _ma,5
	MOVW R0,R30
	CALL SUBOPT_0x1C
	SBIW R30,1
	CALL SUBOPT_0x2D
	ADIW R30,1
	CALL SUBOPT_0x2E
; 0000 02A3        ma[a-1][6]=~thanhtruotIphone[b-1][a-1][2];
	CALL SUBOPT_0x21
	__ADDW1MN _ma,6
	MOVW R0,R30
	CALL SUBOPT_0x1C
	SBIW R30,1
	CALL SUBOPT_0x2D
	ADIW R30,2
	CALL SUBOPT_0x2E
; 0000 02A4        ma[a-1][7]=~thanhtruotIphone[b-1][a-1][3];
	CALL SUBOPT_0x21
	__ADDW1MN _ma,7
	MOVW R0,R30
	CALL SUBOPT_0x1C
	SBIW R30,1
	CALL SUBOPT_0x2D
	ADIW R30,3
	LPM  R30,Z
	COM  R30
	MOVW R26,R0
	ST   X,R30
; 0000 02A5       }
	SUBI R17,1
	RJMP _0x88
_0x89:
; 0000 02A6       for(c=0;c<3;c++){hienthi();}
	LDI  R19,LOW(0)
_0x8B:
	CPI  R19,3
	BRSH _0x8C
	RCALL _hienthi
	SUBI R19,-1
	RJMP _0x8B
_0x8C:
; 0000 02A7   }
	SUBI R16,1
	RJMP _0x85
_0x86:
; 0000 02A8   EIMSK=0x01;  // cho phep ngat ngoai 0  <at328>
	LDI  R30,LOW(1)
	OUT  0x1D,R30
; 0000 02A9 }
	RJMP _0x2000007
;//--------------lat giay------------
;void lattrang()
; 0000 02AC {
_lattrang:
; 0000 02AD  unsigned char a,b,c;
; 0000 02AE  sang=sang-2;
	CALL __SAVELOCR4
;	a -> R17
;	b -> R16
;	c -> R19
	CALL SUBOPT_0x2F
; 0000 02AF   if(giay!=0)
	BRNE PC+3
	JMP _0x8D
; 0000 02B0   {
; 0000 02B1       for(c=0;c<14;c++)
	LDI  R19,LOW(0)
_0x8F:
	CPI  R19,14
	BRSH _0x90
; 0000 02B2       {
; 0000 02B3          for(a=16;a>1;a--)
	LDI  R17,LOW(16)
_0x92:
	CPI  R17,2
	BRLO _0x93
; 0000 02B4          {
; 0000 02B5            ma[a-1][6]=ma[a-2][6];
	CALL SUBOPT_0x17
	MOVW R0,R30
	CALL SUBOPT_0x27
	CALL SUBOPT_0x30
	CALL SUBOPT_0x31
; 0000 02B6            ma[a-1][7]=ma[a-2][7];
	MOVW R0,R30
	CALL SUBOPT_0x29
	CALL SUBOPT_0x30
	CALL SUBOPT_0x32
; 0000 02B7          }
	SUBI R17,1
	RJMP _0x92
_0x93:
; 0000 02B8              for(b=0;b<2;b++)
	LDI  R16,LOW(0)
_0x95:
	CPI  R16,2
	BRSH _0x96
; 0000 02B9             {
; 0000 02BA              hienthi();
	RCALL _hienthi
; 0000 02BB             }
	SUBI R16,-1
	RJMP _0x95
_0x96:
; 0000 02BC       }
	SUBI R19,-1
	RJMP _0x8F
_0x90:
; 0000 02BD       for(c=0;c<14;c++)
	LDI  R19,LOW(0)
_0x98:
	CPI  R19,14
	BRSH _0x99
; 0000 02BE       {
; 0000 02BF       ma[0][6]=so[giay/10][15-c];
	MOV  R26,R13
	CALL SUBOPT_0x14
	CALL SUBOPT_0x33
	CALL SUBOPT_0x34
	CALL SUBOPT_0x35
; 0000 02C0       ma[0][7]=so[giay%10][15-c];
	CALL SUBOPT_0x33
	CALL SUBOPT_0x34
	CALL SUBOPT_0x36
; 0000 02C1             for(b=0;b<2;b++)
_0x9B:
	CPI  R16,2
	BRSH _0x9C
; 0000 02C2             {
; 0000 02C3              hienthi();
	RCALL _hienthi
; 0000 02C4             }
	SUBI R16,-1
	RJMP _0x9B
_0x9C:
; 0000 02C5            for(a=16;a>1;a--)
	LDI  R17,LOW(16)
_0x9E:
	CPI  R17,2
	BRLO _0x9F
; 0000 02C6              {
; 0000 02C7                ma[a-1][6]=ma[a-2][6];
	CALL SUBOPT_0x17
	MOVW R0,R30
	CALL SUBOPT_0x27
	CALL SUBOPT_0x30
	CALL SUBOPT_0x31
; 0000 02C8                ma[a-1][7]=ma[a-2][7];
	MOVW R0,R30
	CALL SUBOPT_0x29
	CALL SUBOPT_0x30
	CALL SUBOPT_0x32
; 0000 02C9              }
	SUBI R17,1
	RJMP _0x9E
_0x9F:
; 0000 02CA       }
	SUBI R19,-1
	RJMP _0x98
_0x99:
; 0000 02CB 
; 0000 02CC        ma[0][6]=0xff;
	CALL SUBOPT_0x37
; 0000 02CD        ma[0][7]=0xff;
; 0000 02CE        for(b=0;b<2;b++)
_0xA1:
	CPI  R16,2
	BRSH _0xA2
; 0000 02CF             {
; 0000 02D0              hienthi();
	RCALL _hienthi
; 0000 02D1             }
	SUBI R16,-1
	RJMP _0xA1
_0xA2:
; 0000 02D2             for(a=16;a>1;a--)
	LDI  R17,LOW(16)
_0xA4:
	CPI  R17,2
	BRLO _0xA5
; 0000 02D3              {
; 0000 02D4                ma[a-1][6]=ma[a-2][6];
	CALL SUBOPT_0x17
	MOVW R0,R30
	CALL SUBOPT_0x27
	CALL SUBOPT_0x30
	CALL SUBOPT_0x31
; 0000 02D5                ma[a-1][7]=ma[a-2][7];
	MOVW R0,R30
	CALL SUBOPT_0x29
	CALL SUBOPT_0x30
	CALL SUBOPT_0x32
; 0000 02D6              }
	SUBI R17,1
	RJMP _0xA4
_0xA5:
; 0000 02D7        ma[0][6]=0xff;
	RJMP _0x657
; 0000 02D8        ma[0][7]=0xff;
; 0000 02D9   }
; 0000 02DA   else if(giay==0 && phut !=0)
_0x8D:
	LDI  R30,LOW(0)
	CP   R30,R13
	BRNE _0xA8
	CP   R30,R14
	BRNE _0xA9
_0xA8:
	RJMP _0xA7
_0xA9:
; 0000 02DB   {
; 0000 02DC       for(c=0;c<14;c++)
	LDI  R19,LOW(0)
_0xAB:
	CPI  R19,14
	BRSH _0xAC
; 0000 02DD       {
; 0000 02DE          for(a=16;a>1;a--)
	LDI  R17,LOW(16)
_0xAE:
	CPI  R17,2
	BRLO _0xAF
; 0000 02DF          {
; 0000 02E0            ma[a-1][3]=ma[a-2][3];
	CALL SUBOPT_0x17
	MOVW R0,R30
	CALL SUBOPT_0x23
	CALL SUBOPT_0x30
	CALL SUBOPT_0x38
; 0000 02E1            ma[a-1][4]=ma[a-2][4];
	MOVW R0,R30
	CALL SUBOPT_0x25
	CALL SUBOPT_0x30
	CALL SUBOPT_0x39
; 0000 02E2            ma[a-1][6]=ma[a-2][6];
	MOVW R0,R30
	CALL SUBOPT_0x27
	CALL SUBOPT_0x30
	CALL SUBOPT_0x31
; 0000 02E3            ma[a-1][7]=ma[a-2][7];
	MOVW R0,R30
	CALL SUBOPT_0x29
	CALL SUBOPT_0x30
	CALL SUBOPT_0x32
; 0000 02E4          }
	SUBI R17,1
	RJMP _0xAE
_0xAF:
; 0000 02E5              for(b=0;b<2;b++)
	LDI  R16,LOW(0)
_0xB1:
	CPI  R16,2
	BRSH _0xB2
; 0000 02E6             {
; 0000 02E7              hienthi();
	RCALL _hienthi
; 0000 02E8             }
	SUBI R16,-1
	RJMP _0xB1
_0xB2:
; 0000 02E9       }
	SUBI R19,-1
	RJMP _0xAB
_0xAC:
; 0000 02EA       for(c=0;c<14;c++)
	LDI  R19,LOW(0)
_0xB4:
	CPI  R19,14
	BRLO PC+3
	JMP _0xB5
; 0000 02EB       {
; 0000 02EC       ma[0][3]=so[phut/10][15-c];
	MOV  R26,R14
	CALL SUBOPT_0x14
	CALL SUBOPT_0x33
	CALL SUBOPT_0x34
	CALL SUBOPT_0x3A
; 0000 02ED       ma[0][4]=so[phut%10][15-c];
	CALL SUBOPT_0x33
	CALL SUBOPT_0x34
	CALL SUBOPT_0x3B
; 0000 02EE       ma[0][6]=so[giay/10][15-c];
	CALL SUBOPT_0x33
	CALL SUBOPT_0x34
	CALL SUBOPT_0x35
; 0000 02EF       ma[0][7]=so[giay%10][15-c];
	CALL SUBOPT_0x33
	CALL SUBOPT_0x34
	CALL SUBOPT_0x36
; 0000 02F0             for(b=0;b<2;b++)
_0xB7:
	CPI  R16,2
	BRSH _0xB8
; 0000 02F1             {
; 0000 02F2              hienthi();
	RCALL _hienthi
; 0000 02F3             }
	SUBI R16,-1
	RJMP _0xB7
_0xB8:
; 0000 02F4            for(a=16;a>1;a--)
	LDI  R17,LOW(16)
_0xBA:
	CPI  R17,2
	BRLO _0xBB
; 0000 02F5              {
; 0000 02F6                ma[a-1][3]=ma[a-2][3];
	CALL SUBOPT_0x17
	MOVW R0,R30
	CALL SUBOPT_0x23
	CALL SUBOPT_0x30
	CALL SUBOPT_0x38
; 0000 02F7                ma[a-1][4]=ma[a-2][4];
	MOVW R0,R30
	CALL SUBOPT_0x25
	CALL SUBOPT_0x30
	CALL SUBOPT_0x39
; 0000 02F8                ma[a-1][6]=ma[a-2][6];
	MOVW R0,R30
	CALL SUBOPT_0x27
	CALL SUBOPT_0x30
	CALL SUBOPT_0x31
; 0000 02F9                ma[a-1][7]=ma[a-2][7];
	MOVW R0,R30
	CALL SUBOPT_0x29
	CALL SUBOPT_0x30
	CALL SUBOPT_0x32
; 0000 02FA              }
	SUBI R17,1
	RJMP _0xBA
_0xBB:
; 0000 02FB       }
	SUBI R19,-1
	RJMP _0xB4
_0xB5:
; 0000 02FC 
; 0000 02FD        ma[0][3]=0xff;ma[0][4]=0xff;ma[0][6]=0xff;ma[0][7]=0xff;
	CALL SUBOPT_0x3C
; 0000 02FE        for(b=0;b<2;b++)
_0xBD:
	CPI  R16,2
	BRSH _0xBE
; 0000 02FF             {
; 0000 0300              hienthi();
	RCALL _hienthi
; 0000 0301             }
	SUBI R16,-1
	RJMP _0xBD
_0xBE:
; 0000 0302             for(a=16;a>1;a--)
	LDI  R17,LOW(16)
_0xC0:
	CPI  R17,2
	BRLO _0xC1
; 0000 0303              {
; 0000 0304                ma[a-1][3]=ma[a-2][3];
	CALL SUBOPT_0x17
	MOVW R0,R30
	CALL SUBOPT_0x23
	CALL SUBOPT_0x30
	CALL SUBOPT_0x38
; 0000 0305                ma[a-1][4]=ma[a-2][4];
	MOVW R0,R30
	CALL SUBOPT_0x25
	CALL SUBOPT_0x30
	CALL SUBOPT_0x39
; 0000 0306                ma[a-1][6]=ma[a-2][6];
	MOVW R0,R30
	CALL SUBOPT_0x27
	CALL SUBOPT_0x30
	CALL SUBOPT_0x31
; 0000 0307                ma[a-1][7]=ma[a-2][7];
	MOVW R0,R30
	CALL SUBOPT_0x29
	CALL SUBOPT_0x30
	CALL SUBOPT_0x32
; 0000 0308              }
	SUBI R17,1
	RJMP _0xC0
_0xC1:
; 0000 0309        ma[0][3]=0xff;ma[0][4]=0xff;ma[0][6]=0xff;ma[0][7]=0xff;
	RJMP _0x658
; 0000 030A   }
; 0000 030B   else if(giay==0 && phut ==0)
_0xA7:
	LDI  R30,LOW(0)
	CP   R30,R13
	BRNE _0xC4
	CP   R30,R14
	BREQ _0xC5
_0xC4:
	RJMP _0xC3
_0xC5:
; 0000 030C   {
; 0000 030D       for(c=0;c<14;c++)
	LDI  R19,LOW(0)
_0xC7:
	CPI  R19,14
	BRSH _0xC8
; 0000 030E       {
; 0000 030F          for(a=16;a>1;a--)
	LDI  R17,LOW(16)
_0xCA:
	CPI  R17,2
	BRLO _0xCB
; 0000 0310          {
; 0000 0311            ma[a-1][0]=ma[a-2][0];
	CALL SUBOPT_0x17
	CALL SUBOPT_0x3D
	CALL SUBOPT_0x3E
	CALL SUBOPT_0x3F
; 0000 0312            ma[a-1][1]=ma[a-2][1];
	MOVW R0,R30
	CALL SUBOPT_0x20
	CALL SUBOPT_0x30
	CALL SUBOPT_0x40
; 0000 0313            ma[a-1][3]=ma[a-2][3];
	MOVW R0,R30
	CALL SUBOPT_0x23
	CALL SUBOPT_0x30
	CALL SUBOPT_0x38
; 0000 0314            ma[a-1][4]=ma[a-2][4];
	MOVW R0,R30
	CALL SUBOPT_0x25
	CALL SUBOPT_0x30
	CALL SUBOPT_0x39
; 0000 0315            ma[a-1][6]=ma[a-2][6];
	MOVW R0,R30
	CALL SUBOPT_0x27
	CALL SUBOPT_0x30
	CALL SUBOPT_0x31
; 0000 0316            ma[a-1][7]=ma[a-2][7];
	MOVW R0,R30
	CALL SUBOPT_0x29
	CALL SUBOPT_0x30
	CALL SUBOPT_0x32
; 0000 0317          }
	SUBI R17,1
	RJMP _0xCA
_0xCB:
; 0000 0318              for(b=0;b<2;b++)
	LDI  R16,LOW(0)
_0xCD:
	CPI  R16,2
	BRSH _0xCE
; 0000 0319             {
; 0000 031A              hienthi();
	RCALL _hienthi
; 0000 031B             }
	SUBI R16,-1
	RJMP _0xCD
_0xCE:
; 0000 031C       }
	SUBI R19,-1
	RJMP _0xC7
_0xC8:
; 0000 031D       for(c=0;c<14;c++)
	LDI  R19,LOW(0)
_0xD0:
	CPI  R19,14
	BRLO PC+3
	JMP _0xD1
; 0000 031E       {
; 0000 031F       ma[0][0]=so[nam/10][15-c];
	CALL SUBOPT_0x41
	CALL SUBOPT_0x33
	CALL SUBOPT_0x34
	CALL SUBOPT_0x42
; 0000 0320       ma[0][1]=so[nam%10][15-c];
	CALL SUBOPT_0x43
	CALL SUBOPT_0x33
	CALL SUBOPT_0x34
	CALL SUBOPT_0x44
; 0000 0321       ma[0][3]=so[phut/10][15-c];
	MOV  R26,R14
	CALL SUBOPT_0x14
	CALL SUBOPT_0x33
	CALL SUBOPT_0x34
	CALL SUBOPT_0x3A
; 0000 0322       ma[0][4]=so[phut%10][15-c];
	CALL SUBOPT_0x33
	CALL SUBOPT_0x34
	CALL SUBOPT_0x3B
; 0000 0323       ma[0][6]=so[giay/10][15-c];
	CALL SUBOPT_0x33
	CALL SUBOPT_0x34
	CALL SUBOPT_0x35
; 0000 0324       ma[0][7]=so[giay%10][15-c];
	CALL SUBOPT_0x33
	CALL SUBOPT_0x34
	CALL SUBOPT_0x36
; 0000 0325             for(b=0;b<2;b++)
_0xD3:
	CPI  R16,2
	BRSH _0xD4
; 0000 0326             {
; 0000 0327              hienthi();
	RCALL _hienthi
; 0000 0328             }
	SUBI R16,-1
	RJMP _0xD3
_0xD4:
; 0000 0329            for(a=16;a>1;a--)
	LDI  R17,LOW(16)
_0xD6:
	CPI  R17,2
	BRLO _0xD7
; 0000 032A              {
; 0000 032B                ma[a-1][0]=ma[a-2][0];
	CALL SUBOPT_0x17
	CALL SUBOPT_0x3D
	CALL SUBOPT_0x3E
	CALL SUBOPT_0x3F
; 0000 032C                ma[a-1][1]=ma[a-2][1];
	MOVW R0,R30
	CALL SUBOPT_0x20
	CALL SUBOPT_0x30
	CALL SUBOPT_0x40
; 0000 032D                ma[a-1][3]=ma[a-2][3];
	MOVW R0,R30
	CALL SUBOPT_0x23
	CALL SUBOPT_0x30
	CALL SUBOPT_0x38
; 0000 032E                ma[a-1][4]=ma[a-2][4];
	MOVW R0,R30
	CALL SUBOPT_0x25
	CALL SUBOPT_0x30
	CALL SUBOPT_0x39
; 0000 032F                ma[a-1][6]=ma[a-2][6];
	MOVW R0,R30
	CALL SUBOPT_0x27
	CALL SUBOPT_0x30
	CALL SUBOPT_0x31
; 0000 0330                ma[a-1][7]=ma[a-2][7];
	MOVW R0,R30
	CALL SUBOPT_0x29
	CALL SUBOPT_0x30
	CALL SUBOPT_0x32
; 0000 0331              }
	SUBI R17,1
	RJMP _0xD6
_0xD7:
; 0000 0332       }
	SUBI R19,-1
	RJMP _0xD0
_0xD1:
; 0000 0333 
; 0000 0334        ma[0][0]=0xff;ma[0][1]=0xff;ma[0][3]=0xff;ma[0][4]=0xff;ma[0][6]=0xff;ma[0][7]=0xff;
	CALL SUBOPT_0x45
	CALL SUBOPT_0x3C
; 0000 0335        for(b=0;b<2;b++)
_0xD9:
	CPI  R16,2
	BRSH _0xDA
; 0000 0336             {
; 0000 0337              hienthi();
	RCALL _hienthi
; 0000 0338             }
	SUBI R16,-1
	RJMP _0xD9
_0xDA:
; 0000 0339             for(a=16;a>1;a--)
	LDI  R17,LOW(16)
_0xDC:
	CPI  R17,2
	BRLO _0xDD
; 0000 033A              {
; 0000 033B                ma[a-1][0]=ma[a-2][0];
	CALL SUBOPT_0x17
	CALL SUBOPT_0x3D
	CALL SUBOPT_0x3E
	CALL SUBOPT_0x3F
; 0000 033C                ma[a-1][1]=ma[a-2][1];
	MOVW R0,R30
	CALL SUBOPT_0x20
	CALL SUBOPT_0x30
	CALL SUBOPT_0x40
; 0000 033D                ma[a-1][3]=ma[a-2][3];
	MOVW R0,R30
	CALL SUBOPT_0x23
	CALL SUBOPT_0x30
	CALL SUBOPT_0x38
; 0000 033E                ma[a-1][4]=ma[a-2][4];
	MOVW R0,R30
	CALL SUBOPT_0x25
	CALL SUBOPT_0x30
	CALL SUBOPT_0x39
; 0000 033F                ma[a-1][6]=ma[a-2][6];
	MOVW R0,R30
	CALL SUBOPT_0x27
	CALL SUBOPT_0x30
	CALL SUBOPT_0x31
; 0000 0340                ma[a-1][7]=ma[a-2][7];
	MOVW R0,R30
	CALL SUBOPT_0x29
	CALL SUBOPT_0x30
	CALL SUBOPT_0x32
; 0000 0341              }
	SUBI R17,1
	RJMP _0xDC
_0xDD:
; 0000 0342        ma[0][0]=0xff;ma[0][1]=0xff;ma[0][3]=0xff;ma[0][4]=0xff;ma[0][6]=0xff;ma[0][7]=0xff;
	CALL SUBOPT_0x45
_0x658:
	LDI  R30,LOW(255)
	__PUTB1MN _ma,3
	__PUTB1MN _ma,4
_0x657:
	LDI  R30,LOW(255)
	__PUTB1MN _ma,6
	__PUTB1MN _ma,7
; 0000 0343   }
; 0000 0344   sang=sang+2;
_0xC3:
	LDI  R30,LOW(2)
	LDI  R31,HIGH(2)
	__ADDWRR 11,12,30,31
; 0000 0345 }
_0x2000007:
	CALL __LOADLOCR4
	ADIW R28,4
	RET
;
;//----------------------------------------------------
;
;
;void quetchu() //
; 0000 034B {
_quetchu:
; 0000 034C  unsigned char a,b;
; 0000 034D sang=sang-2;
	ST   -Y,R17
	ST   -Y,R16
;	a -> R17
;	b -> R16
	CALL SUBOPT_0x2F
; 0000 034E if(giay!=0)
	BRNE PC+3
	JMP _0xDE
; 0000 034F {
; 0000 0350  if((giay%2)==1)
	MOV  R26,R13
	CALL SUBOPT_0x46
	BREQ PC+3
	JMP _0xDF
; 0000 0351  {
; 0000 0352   for(b=0;b<8;b++)
	LDI  R16,LOW(0)
_0xE1:
	CPI  R16,8
	BRSH _0xE2
; 0000 0353        {
; 0000 0354 
; 0000 0355           for(a=1;a<17;a++)
	LDI  R17,LOW(1)
_0xE4:
	CPI  R17,17
	BRSH _0xE5
; 0000 0356                {
; 0000 0357                   ma[a-1][6]=ma[a-1][6] & ~(0x80>>b);
	CALL SUBOPT_0x17
	CALL SUBOPT_0x27
	CALL SUBOPT_0x47
; 0000 0358                }
	SUBI R17,-1
	RJMP _0xE4
_0xE5:
; 0000 0359                hienthi();  hienthi();hienthi();hienthi();
	CALL SUBOPT_0x48
; 0000 035A             for(a=1;a<17;a++)
_0xE7:
	CPI  R17,17
	BRSH _0xE8
; 0000 035B                {
; 0000 035C                   ma[a-1][6]= ma[a-1][6] | so[giay/10][a-1] &(0x80>>b);
	CALL SUBOPT_0x17
	CALL SUBOPT_0x27
	__PUTW1R 23,24
	LD   R22,Z
	MOV  R26,R13
	CALL SUBOPT_0x14
	CALL SUBOPT_0x1E
	CALL SUBOPT_0x49
; 0000 035D                }
	SUBI R17,-1
	RJMP _0xE7
_0xE8:
; 0000 035E 
; 0000 035F        }
	SUBI R16,-1
	RJMP _0xE1
_0xE2:
; 0000 0360     for(b=0;b<8;b++)
	LDI  R16,LOW(0)
_0xEA:
	CPI  R16,8
	BRSH _0xEB
; 0000 0361        {
; 0000 0362 
; 0000 0363           for(a=1;a<17;a++)
	LDI  R17,LOW(1)
_0xED:
	CPI  R17,17
	BRSH _0xEE
; 0000 0364                {
; 0000 0365                   ma[a-1][7]=ma[a-1][7] & ~(0x80>>b);
	CALL SUBOPT_0x17
	CALL SUBOPT_0x29
	CALL SUBOPT_0x47
; 0000 0366                }
	SUBI R17,-1
	RJMP _0xED
_0xEE:
; 0000 0367                hienthi();  hienthi();hienthi();hienthi();
	CALL SUBOPT_0x48
; 0000 0368             for(a=1;a<17;a++)
_0xF0:
	CPI  R17,17
	BRSH _0xF1
; 0000 0369                {
; 0000 036A                   ma[a-1][7]= ma[a-1][7] | so[giay%10][a-1] &(0x80>>b);
	CALL SUBOPT_0x17
	CALL SUBOPT_0x29
	__PUTW1R 23,24
	LD   R22,Z
	MOV  R26,R13
	CALL SUBOPT_0x15
	CALL SUBOPT_0x1E
	CALL SUBOPT_0x49
; 0000 036B                }
	SUBI R17,-1
	RJMP _0xF0
_0xF1:
; 0000 036C        }
	SUBI R16,-1
	RJMP _0xEA
_0xEB:
; 0000 036D   }
; 0000 036E   else
	RJMP _0xF2
_0xDF:
; 0000 036F   {
; 0000 0370           for(a=1;a<17;a++)
	LDI  R17,LOW(1)
_0xF4:
	CPI  R17,17
	BRSH _0xF5
; 0000 0371                {
; 0000 0372                      ma[a-1][6]=0x00;
	CALL SUBOPT_0x17
	CALL SUBOPT_0x27
	CALL SUBOPT_0x4A
; 0000 0373                      ma[a-1][7]=0x00;
	CALL SUBOPT_0x29
	LDI  R26,LOW(0)
	STD  Z+0,R26
; 0000 0374                     if(a!=1)
	CPI  R17,1
	BREQ _0xF6
; 0000 0375                     {
; 0000 0376                      ma[a-2][6]=so[giay/10][a-2];
	CALL SUBOPT_0x17
	CALL SUBOPT_0x4B
	CALL SUBOPT_0x1E
	CALL SUBOPT_0x4C
; 0000 0377                      ma[a-2][7]=so[giay%10][a-2];
	CALL SUBOPT_0x17
	CALL SUBOPT_0x4D
	CALL SUBOPT_0x1E
	CALL SUBOPT_0x4C
; 0000 0378                     }
; 0000 0379 
; 0000 037A                     hienthi();  hienthi();hienthi();hienthi();
_0xF6:
	CALL SUBOPT_0x4E
; 0000 037B                }
	SUBI R17,-1
	RJMP _0xF4
_0xF5:
; 0000 037C                 ma[15][6]=0xff;
	CALL SUBOPT_0x4F
; 0000 037D                 ma[15][7]=0xff;
; 0000 037E   }
_0xF2:
; 0000 037F  }
; 0000 0380  else if(giay==0 && phut !=0)
	RJMP _0xF7
_0xDE:
	LDI  R30,LOW(0)
	CP   R30,R13
	BRNE _0xF9
	CP   R30,R14
	BRNE _0xFA
_0xF9:
	RJMP _0xF8
_0xFA:
; 0000 0381  {
; 0000 0382   {
; 0000 0383           for(a=1;a<17;a++)
	LDI  R17,LOW(1)
_0xFC:
	CPI  R17,17
	BRSH _0xFD
; 0000 0384                {
; 0000 0385                     ma[a-1][3]=0x00;ma[a-1][4]=0x00;ma[a-1][6]=0x00;ma[a-1][7]=0x00;
	CALL SUBOPT_0x17
	CALL SUBOPT_0x23
	CALL SUBOPT_0x4A
	CALL SUBOPT_0x25
	CALL SUBOPT_0x4A
	CALL SUBOPT_0x27
	CALL SUBOPT_0x4A
	CALL SUBOPT_0x29
	LDI  R26,LOW(0)
	STD  Z+0,R26
; 0000 0386                     if(a!=1)
	CPI  R17,1
	BREQ _0xFE
; 0000 0387                     {
; 0000 0388                      ma[a-2][3]=so[phut/10][a-2];
	CALL SUBOPT_0x17
	CALL SUBOPT_0x50
	CALL SUBOPT_0x24
	CALL SUBOPT_0x1E
	CALL SUBOPT_0x4C
; 0000 0389                      ma[a-2][4]=so[phut%10][a-2];
	CALL SUBOPT_0x17
	CALL SUBOPT_0x51
	CALL SUBOPT_0x26
	CALL SUBOPT_0x1E
	CALL SUBOPT_0x4C
; 0000 038A                      ma[a-2][6]=so[giay/10][a-2];
	CALL SUBOPT_0x17
	CALL SUBOPT_0x4B
	CALL SUBOPT_0x1E
	CALL SUBOPT_0x4C
; 0000 038B                      ma[a-2][7]=so[giay%10][a-2];
	CALL SUBOPT_0x17
	CALL SUBOPT_0x4D
	CALL SUBOPT_0x1E
	CALL SUBOPT_0x4C
; 0000 038C                     }
; 0000 038D 
; 0000 038E                     hienthi();  hienthi();hienthi();hienthi();
_0xFE:
	CALL SUBOPT_0x4E
; 0000 038F                }
	SUBI R17,-1
	RJMP _0xFC
_0xFD:
; 0000 0390                    ma[15][3]=0xff;ma[15][4]=0xff;ma[15][6]=0xff;ma[15][7]=0xff;
	RJMP _0x659
; 0000 0391   }
; 0000 0392  }
; 0000 0393 
; 0000 0394  else if(giay==0 && phut ==0)
_0xF8:
	LDI  R30,LOW(0)
	CP   R30,R13
	BRNE _0x101
	CP   R30,R14
	BREQ _0x102
_0x101:
	RJMP _0x100
_0x102:
; 0000 0395   {
; 0000 0396           for(a=1;a<17;a++)
	LDI  R17,LOW(1)
_0x104:
	CPI  R17,17
	BRLO PC+3
	JMP _0x105
; 0000 0397                {
; 0000 0398                     ma[a-1][0]=0x00;ma[a-1][1]=0x00;ma[a-1][3]=0x00;ma[a-1][4]=0x00;ma[a-1][6]=0x00;ma[a-1][7]=0x00;
	CALL SUBOPT_0x17
	SBIW R30,1
	CALL SUBOPT_0x1B
	CALL SUBOPT_0x4A
	CALL SUBOPT_0x20
	CALL SUBOPT_0x4A
	CALL SUBOPT_0x23
	CALL SUBOPT_0x4A
	CALL SUBOPT_0x25
	CALL SUBOPT_0x4A
	CALL SUBOPT_0x27
	CALL SUBOPT_0x4A
	CALL SUBOPT_0x29
	LDI  R26,LOW(0)
	STD  Z+0,R26
; 0000 0399                     if(a!=1)
	CPI  R17,1
	BREQ _0x106
; 0000 039A                     {
; 0000 039B                      ma[a-2][3]=so[gio/10][a-2];
	CALL SUBOPT_0x17
	CALL SUBOPT_0x50
	MOVW R22,R30
	MOV  R26,R9
	CALL SUBOPT_0x14
	CALL SUBOPT_0x1E
	CALL SUBOPT_0x4C
; 0000 039C                      ma[a-2][4]=so[gio%10][a-2];
	CALL SUBOPT_0x17
	CALL SUBOPT_0x51
	MOVW R22,R30
	MOV  R26,R9
	CALL SUBOPT_0x15
	CALL SUBOPT_0x1E
	CALL SUBOPT_0x4C
; 0000 039D                      ma[a-2][3]=so[phut/10][a-2];
	CALL SUBOPT_0x17
	CALL SUBOPT_0x50
	CALL SUBOPT_0x24
	CALL SUBOPT_0x1E
	CALL SUBOPT_0x4C
; 0000 039E                      ma[a-2][4]=so[phut%10][a-2];
	CALL SUBOPT_0x17
	CALL SUBOPT_0x51
	CALL SUBOPT_0x26
	CALL SUBOPT_0x1E
	CALL SUBOPT_0x4C
; 0000 039F                      ma[a-2][6]=so[giay/10][a-2];
	CALL SUBOPT_0x17
	CALL SUBOPT_0x4B
	CALL SUBOPT_0x1E
	CALL SUBOPT_0x4C
; 0000 03A0                      ma[a-2][7]=so[giay%10][a-2];
	CALL SUBOPT_0x17
	CALL SUBOPT_0x4D
	CALL SUBOPT_0x1E
	CALL SUBOPT_0x4C
; 0000 03A1                     }
; 0000 03A2 
; 0000 03A3                     hienthi();  hienthi();hienthi();hienthi();
_0x106:
	CALL SUBOPT_0x4E
; 0000 03A4                }
	SUBI R17,-1
	RJMP _0x104
_0x105:
; 0000 03A5                   ma[15][0]=0xff;ma[15][1]=0xff; ma[15][3]=0xff;ma[15][4]=0xff;ma[15][6]=0xff;ma[15][7]=0xff;
	LDI  R30,LOW(255)
	__PUTB1MN _ma,120
	__PUTB1MN _ma,121
_0x659:
	LDI  R30,LOW(255)
	__PUTB1MN _ma,123
	__PUTB1MN _ma,124
	CALL SUBOPT_0x4F
; 0000 03A6 
; 0000 03A7   }
; 0000 03A8   sang=sang+2;
_0x100:
_0xF7:
	LDI  R30,LOW(2)
	LDI  R31,HIGH(2)
	__ADDWRR 11,12,30,31
; 0000 03A9 }
	LD   R16,Y+
	LD   R17,Y+
	RET
;
;
;
;//====================================================================================
;unsigned int tinhlich(unsigned char ngayduong,unsigned char thangduong, unsigned char namduong)
; 0000 03AF {
_tinhlich:
; 0000 03B0 	unsigned int songay,t5;
; 0000 03B1 	unsigned char ngayam,thangam;
; 0000 03B2 if(nam%4==0) songay=count_year[namduong]+count_month1[thangduong]+ngayduong;
	CALL __SAVELOCR6
;	ngayduong -> Y+8
;	thangduong -> Y+7
;	namduong -> Y+6
;	songay -> R16,R17
;	t5 -> R18,R19
;	ngayam -> R21
;	thangam -> R20
	LDS  R26,_nam
	CLR  R27
	LDI  R30,LOW(4)
	LDI  R31,HIGH(4)
	CALL __MODW21
	SBIW R30,0
	BRNE _0x107
	CALL SUBOPT_0x52
	LDI  R26,LOW(_count_month1*2)
	LDI  R27,HIGH(_count_month1*2)
	RJMP _0x65A
; 0000 03B3 else songay=count_year[namduong]+count_month[thangduong]+ngayduong;
_0x107:
	CALL SUBOPT_0x52
	LDI  R26,LOW(_count_month*2)
	LDI  R27,HIGH(_count_month*2)
_0x65A:
	LDI  R31,0
	CALL SUBOPT_0x53
	CALL __GETW1PF
	MOVW R26,R22
	ADD  R26,R30
	ADC  R27,R31
	CALL SUBOPT_0x54
	ADD  R30,R26
	ADC  R31,R27
	MOVW R16,R30
; 0000 03B4 songay--;
	__SUBWRN 16,17,1
; 0000 03B5 songay=songay-count_year1[namduong];
	LDD  R30,Y+6
	LDI  R26,LOW(_count_year1*2)
	LDI  R27,HIGH(_count_year1*2)
	LDI  R31,0
	CALL SUBOPT_0x53
	CALL __GETW2PF
	__SUBWRR 16,17,26,27
; 0000 03B6 
; 0000 03B7 for(t5=sothang[namduong];t5<262;t5++)
	LDD  R30,Y+6
	LDI  R26,LOW(_sothang*2)
	LDI  R27,HIGH(_sothang*2)
	LDI  R31,0
	CALL SUBOPT_0x53
	CALL __GETW1PF
	MOVW R18,R30
_0x10A:
	__CPWRN 18,19,262
	BRSH _0x10B
; 0000 03B8 {
; 0000 03B9 	if(songay==0)break;
	MOV  R0,R16
	OR   R0,R17
	BREQ _0x10B
; 0000 03BA  	if(songay>50000)break;
	__CPWRN 16,17,-15535
	BRSH _0x10B
; 0000 03BB 
; 0000 03BC  	if(lich[t5]>16) { songay=songay-30;}
	MOVW R30,R18
	CALL SUBOPT_0x55
	BRLO _0x10E
	__SUBWRN 16,17,30
; 0000 03BD 	else            { songay=songay-29;}
	RJMP _0x10F
_0x10E:
	__SUBWRN 16,17,29
_0x10F:
; 0000 03BE }
	__ADDWRN 18,19,1
	RJMP _0x10A
_0x10B:
; 0000 03BF     if(songay==0) { if(lich[t5-1]>16) { thangam=lich[t5-1]-16; ngayam=30; }
	MOV  R0,R16
	OR   R0,R17
	BRNE _0x110
	MOVW R30,R18
	SBIW R30,1
	CALL SUBOPT_0x55
	BRLO _0x111
	CALL SUBOPT_0x56
	CALL SUBOPT_0x57
	LDI  R21,LOW(30)
; 0000 03C0                     else              { thangam=lich[t5-1];    ngayam=29; } }
	RJMP _0x112
_0x111:
	CALL SUBOPT_0x56
	LPM  R20,Z
	LDI  R21,LOW(29)
_0x112:
; 0000 03C1   else            { if(lich[t5-1]>16) { thangam=lich[t5-1]-16; ngayam=songay+30; }
	RJMP _0x113
_0x110:
	MOVW R30,R18
	SBIW R30,1
	CALL SUBOPT_0x55
	BRLO _0x114
	CALL SUBOPT_0x56
	CALL SUBOPT_0x57
	MOV  R30,R16
	SUBI R30,-LOW(30)
	RJMP _0x65B
; 0000 03C2 	                  else              { thangam=lich[t5-1];    ngayam=songay+29; } }
_0x114:
	CALL SUBOPT_0x56
	LPM  R20,Z
	MOV  R30,R16
	SUBI R30,-LOW(29)
_0x65B:
	MOV  R21,R30
_0x113:
; 0000 03C3 
; 0000 03C4 
; 0000 03C5 	t5= thangam << 8  ;
	MOV  R31,R20
	LDI  R30,LOW(0)
	MOVW R18,R30
; 0000 03C6 	t5 = t5 + ngayam;
	MOV  R30,R21
	LDI  R31,0
	__ADDWRR 18,19,30,31
; 0000 03C7 	return(t5);
	MOVW R30,R18
	CALL __LOADLOCR6
	ADIW R28,9
	RET
; 0000 03C8 }
;
;void am_lich()
; 0000 03CB  {
_am_lich:
; 0000 03CC  unsigned int t;
; 0000 03CD  t = tinhlich(ngay,thang,nam);
	ST   -Y,R17
	ST   -Y,R16
;	t -> R16,R17
	LDS  R30,_ngay
	ST   -Y,R30
	LDS  R30,_thang
	ST   -Y,R30
	LDS  R30,_nam
	ST   -Y,R30
	RCALL _tinhlich
	MOVW R16,R30
; 0000 03CE  ngay_al=t & 0xff;
	MOV  R30,R16
	STS  _ngay_al,R30
; 0000 03CF  thang_al= t >> 8;
	STS  _thang_al,R17
; 0000 03D0  }
	RJMP _0x2000006
;
;//---------------------------The End --------------------------------------------------------------------
;
;//----------------------Dich Ram sang trai (quet chu Dong Ho Led)------------------------//
;void chaychu()
; 0000 03D6 {
_chaychu:
; 0000 03D7   unsigned char i,y;
; 0000 03D8   for(y=1;y<8;y++)
	ST   -Y,R17
	ST   -Y,R16
;	i -> R17
;	y -> R16
	LDI  R16,LOW(1)
_0x117:
	CPI  R16,8
	BRSH _0x118
; 0000 03D9   {
; 0000 03DA       for(i=1;i<17;i++)
	LDI  R17,LOW(1)
_0x11A:
	CPI  R17,17
	BRSH _0x11B
; 0000 03DB       {
; 0000 03DC           ma[i-1][y-1]= ma[i-1][y-1] << 1;
	CALL SUBOPT_0x17
	SBIW R30,1
	CALL SUBOPT_0x1B
	MOVW R26,R30
	CALL SUBOPT_0x1C
	CALL SUBOPT_0x58
	SBIW R30,1
	CALL SUBOPT_0x1B
	MOVW R26,R30
	CALL SUBOPT_0x1C
	CALL SUBOPT_0x59
; 0000 03DD           ma[i-1][y-1]= ma[i-1][y-1] | ((ma[i-1][y] & 0x80 ) >>7);
	SBIW R30,1
	CALL SUBOPT_0x1B
	MOVW R26,R30
	CALL SUBOPT_0x1C
	CALL SUBOPT_0x5A
	SBIW R30,1
	CALL SUBOPT_0x1B
	MOVW R26,R30
	CALL SUBOPT_0x1C
	CALL SUBOPT_0x5B
	SBIW R30,1
	CALL SUBOPT_0x1B
	CALL SUBOPT_0x1D
	CALL SUBOPT_0x5C
; 0000 03DE       }
	SUBI R17,-1
	RJMP _0x11A
_0x11B:
; 0000 03DF   }
	SUBI R16,-1
	RJMP _0x117
_0x118:
; 0000 03E0 
; 0000 03E1 
; 0000 03E2    for(i=1;i<17;i++)
	LDI  R17,LOW(1)
_0x11D:
	CPI  R17,17
	BRSH _0x11E
; 0000 03E3       {
; 0000 03E4           ma[i-1][7]= ma[i-1][7] << 1;
	CALL SUBOPT_0x17
	CALL SUBOPT_0x29
	CALL SUBOPT_0x5D
; 0000 03E5           ma[i-1][7]= ma[i-1][7] | ((font[i-1][dem1] & (0x80>>dem) ) >> (7-dem));
	CALL SUBOPT_0x17
	CALL SUBOPT_0x5E
	LDI  R26,LOW(43)
	LDI  R27,HIGH(43)
	CALL __MULW12U
	SUBI R30,LOW(-_font*2)
	SBCI R31,HIGH(-_font*2)
	ADD  R30,R5
	ADC  R31,R6
	CALL SUBOPT_0x5F
; 0000 03E6       }
	SUBI R17,-1
	RJMP _0x11D
_0x11E:
; 0000 03E7      dem++;if(dem==8){dem=0;dem1++;if(dem1>42){dem1=0;xoamanhinh();}}
	CALL SUBOPT_0x60
	BRNE _0x11F
	CALL SUBOPT_0x61
	LDI  R30,LOW(42)
	LDI  R31,HIGH(42)
	CP   R30,R5
	CPC  R31,R6
	BRSH _0x120
	CLR  R5
	CLR  R6
	RCALL _xoamanhinh
_0x120:
; 0000 03E8     for(i=0;i<2;i++){hienthi();} // hien thi
_0x11F:
	LDI  R17,LOW(0)
_0x122:
	CPI  R17,2
	BRSH _0x123
	RCALL _hienthi
	SUBI R17,-1
	RJMP _0x122
_0x123:
; 0000 03E9 }
	RJMP _0x2000006
;//-------------------------------------------------------------------------------------//
;
;//----------------------Dich Ram sang trai (quet chu gocdiy.com)------------------------//
;
;void chaychu2()
; 0000 03EF {
_chaychu2:
; 0000 03F0   unsigned char i,y;
; 0000 03F1   for(y=1;y<8;y++)
	ST   -Y,R17
	ST   -Y,R16
;	i -> R17
;	y -> R16
	LDI  R16,LOW(1)
_0x125:
	CPI  R16,8
	BRSH _0x126
; 0000 03F2   {
; 0000 03F3       for(i=1;i<17;i++)
	LDI  R17,LOW(1)
_0x128:
	CPI  R17,17
	BRSH _0x129
; 0000 03F4       {
; 0000 03F5           ma[i-1][y-1]= ma[i-1][y-1] << 1;
	CALL SUBOPT_0x17
	SBIW R30,1
	CALL SUBOPT_0x1B
	MOVW R26,R30
	CALL SUBOPT_0x1C
	CALL SUBOPT_0x58
	SBIW R30,1
	CALL SUBOPT_0x1B
	MOVW R26,R30
	CALL SUBOPT_0x1C
	CALL SUBOPT_0x59
; 0000 03F6           ma[i-1][y-1]= ma[i-1][y-1] | ((ma[i-1][y] & 0x80 ) >>7);
	SBIW R30,1
	CALL SUBOPT_0x1B
	MOVW R26,R30
	CALL SUBOPT_0x1C
	CALL SUBOPT_0x5A
	SBIW R30,1
	CALL SUBOPT_0x1B
	MOVW R26,R30
	CALL SUBOPT_0x1C
	CALL SUBOPT_0x5B
	SBIW R30,1
	CALL SUBOPT_0x1B
	CALL SUBOPT_0x1D
	CALL SUBOPT_0x5C
; 0000 03F7       }
	SUBI R17,-1
	RJMP _0x128
_0x129:
; 0000 03F8   }
	SUBI R16,-1
	RJMP _0x125
_0x126:
; 0000 03F9 
; 0000 03FA   for(i=1;i<17;i++)
	LDI  R17,LOW(1)
_0x12B:
	CPI  R17,17
	BRLO PC+3
	JMP _0x12C
; 0000 03FB       {
; 0000 03FC           ma[i-1][7]= ma[i-1][7] << 1;
	CALL SUBOPT_0x17
	CALL SUBOPT_0x29
	CALL SUBOPT_0x5D
; 0000 03FD            switch (dem1)
	__GETW1R 5,6
; 0000 03FE            {
; 0000 03FF              case 0:{chonchu='G'-65;break;}
	SBIW R30,0
	BRNE _0x130
	LDI  R30,LOW(6)
	LDI  R31,HIGH(6)
	RJMP _0x65C
; 0000 0400              case 1:{chonchu='O'-65;break;}
_0x130:
	CPI  R30,LOW(0x1)
	LDI  R26,HIGH(0x1)
	CPC  R31,R26
	BRNE _0x131
	LDI  R30,LOW(14)
	LDI  R31,HIGH(14)
	RJMP _0x65C
; 0000 0401              case 2:{chonchu='C'-65;break;}
_0x131:
	CPI  R30,LOW(0x2)
	LDI  R26,HIGH(0x2)
	CPC  R31,R26
	BRNE _0x132
	LDI  R30,LOW(2)
	LDI  R31,HIGH(2)
	RJMP _0x65C
; 0000 0402              case 3:{chonchu='D'-65;break;}
_0x132:
	CPI  R30,LOW(0x3)
	LDI  R26,HIGH(0x3)
	CPC  R31,R26
	BRNE _0x133
	LDI  R30,LOW(3)
	LDI  R31,HIGH(3)
	RJMP _0x65C
; 0000 0403              case 4:{chonchu='I'-65;break;}
_0x133:
	CPI  R30,LOW(0x4)
	LDI  R26,HIGH(0x4)
	CPC  R31,R26
	BRNE _0x134
	LDI  R30,LOW(8)
	LDI  R31,HIGH(8)
	RJMP _0x65C
; 0000 0404              case 5:{chonchu='Y'-65;break;}
_0x134:
	CPI  R30,LOW(0x5)
	LDI  R26,HIGH(0x5)
	CPC  R31,R26
	BRNE _0x135
	LDI  R30,LOW(24)
	LDI  R31,HIGH(24)
	RJMP _0x65C
; 0000 0405              case 6:{chonchu=27;break;}
_0x135:
	CPI  R30,LOW(0x6)
	LDI  R26,HIGH(0x6)
	CPC  R31,R26
	BRNE _0x136
	LDI  R30,LOW(27)
	LDI  R31,HIGH(27)
	RJMP _0x65C
; 0000 0406              case 7:{chonchu='C'-65;break;}
_0x136:
	CPI  R30,LOW(0x7)
	LDI  R26,HIGH(0x7)
	CPC  R31,R26
	BRNE _0x137
	LDI  R30,LOW(2)
	LDI  R31,HIGH(2)
	RJMP _0x65C
; 0000 0407              case 8:{chonchu='O'-65;break;}
_0x137:
	CPI  R30,LOW(0x8)
	LDI  R26,HIGH(0x8)
	CPC  R31,R26
	BRNE _0x138
	LDI  R30,LOW(14)
	LDI  R31,HIGH(14)
	RJMP _0x65C
; 0000 0408              case 9:{chonchu='M'-65;break;}
_0x138:
	CPI  R30,LOW(0x9)
	LDI  R26,HIGH(0x9)
	CPC  R31,R26
	BRNE _0x139
	LDI  R30,LOW(12)
	LDI  R31,HIGH(12)
	RJMP _0x65C
; 0000 0409              case 11:{chonchu=30;break;}
_0x139:
	CPI  R30,LOW(0xB)
	LDI  R26,HIGH(0xB)
	CPC  R31,R26
	BRNE _0x13B
	LDI  R30,LOW(30)
	LDI  R31,HIGH(30)
	RJMP _0x65C
; 0000 040A              default:{chonchu=29;break;}
_0x13B:
	LDI  R30,LOW(29)
	LDI  R31,HIGH(29)
_0x65C:
	__PUTW1R 7,8
; 0000 040B            };
; 0000 040C 
; 0000 040D           ma[i-1][7]= ma[i-1][7] | ((chu[chonchu][i-1] & (0x80>>dem) ) >> (7-dem));
	CALL SUBOPT_0x17
	CALL SUBOPT_0x62
; 0000 040E       }
	SUBI R17,-1
	RJMP _0x12B
_0x12C:
; 0000 040F     dem++;if(dem==8){dem=0;dem1++;}
	CALL SUBOPT_0x60
	BRNE _0x13C
	CALL SUBOPT_0x61
; 0000 0410     for(i=0;i<3;i++){hienthi();} // hien thi
_0x13C:
	LDI  R17,LOW(0)
_0x13E:
	CPI  R17,3
	BRSH _0x13F
	RCALL _hienthi
	SUBI R17,-1
	RJMP _0x13E
_0x13F:
; 0000 0411 }
	RJMP _0x2000006
;
;//----------------------Dich Ram sang trai (quet chu THOI GIAN)------------------------//
;
;void chaychu5()
; 0000 0416 {
_chaychu5:
; 0000 0417   unsigned char i,y;
; 0000 0418   for(y=5;y<8;y++)
	ST   -Y,R17
	ST   -Y,R16
;	i -> R17
;	y -> R16
	LDI  R16,LOW(5)
_0x141:
	CPI  R16,8
	BRSH _0x142
; 0000 0419   {
; 0000 041A       for(i=1;i<17;i++)
	LDI  R17,LOW(1)
_0x144:
	CPI  R17,17
	BRSH _0x145
; 0000 041B       {
; 0000 041C           ma[i-1][y-1]= ma[i-1][y-1] << 1;
	CALL SUBOPT_0x17
	SBIW R30,1
	CALL SUBOPT_0x1B
	MOVW R26,R30
	CALL SUBOPT_0x1C
	CALL SUBOPT_0x58
	SBIW R30,1
	CALL SUBOPT_0x1B
	MOVW R26,R30
	CALL SUBOPT_0x1C
	CALL SUBOPT_0x59
; 0000 041D           ma[i-1][y-1]= ma[i-1][y-1] | ((ma[i-1][y] & 0x80 ) >>7);
	SBIW R30,1
	CALL SUBOPT_0x1B
	MOVW R26,R30
	CALL SUBOPT_0x1C
	CALL SUBOPT_0x5A
	SBIW R30,1
	CALL SUBOPT_0x1B
	MOVW R26,R30
	CALL SUBOPT_0x1C
	CALL SUBOPT_0x5B
	SBIW R30,1
	CALL SUBOPT_0x1B
	CALL SUBOPT_0x1D
	CALL SUBOPT_0x5C
; 0000 041E       }
	SUBI R17,-1
	RJMP _0x144
_0x145:
; 0000 041F   }
	SUBI R16,-1
	RJMP _0x141
_0x142:
; 0000 0420   for(i=1;i<17;i++)
	LDI  R17,LOW(1)
_0x147:
	CPI  R17,17
	BRLO PC+3
	JMP _0x148
; 0000 0421       {
; 0000 0422           ma[i-1][7]= ma[i-1][7] << 1;
	CALL SUBOPT_0x17
	CALL SUBOPT_0x29
	CALL SUBOPT_0x5D
; 0000 0423            switch (dem1)
	__GETW1R 5,6
; 0000 0424            {
; 0000 0425              case 0:{chonchu=29;break;}
	SBIW R30,0
	BRNE _0x14C
	RJMP _0x65D
; 0000 0426              case 1:{chonchu='G'-65;break;}
_0x14C:
	CPI  R30,LOW(0x1)
	LDI  R26,HIGH(0x1)
	CPC  R31,R26
	BRNE _0x14D
	LDI  R30,LOW(6)
	LDI  R31,HIGH(6)
	RJMP _0x65E
; 0000 0427              case 2:{chonchu='I'-65;break;}
_0x14D:
	CPI  R30,LOW(0x2)
	LDI  R26,HIGH(0x2)
	CPC  R31,R26
	BRNE _0x14E
	LDI  R30,LOW(8)
	LDI  R31,HIGH(8)
	RJMP _0x65E
; 0000 0428              case 3:{chonchu='A'-65;break;}
_0x14E:
	CPI  R30,LOW(0x3)
	LDI  R26,HIGH(0x3)
	CPC  R31,R26
	BRNE _0x14F
	CLR  R7
	CLR  R8
	RJMP _0x14B
; 0000 0429              case 4:{chonchu='N'-65;break;}
_0x14F:
	CPI  R30,LOW(0x4)
	LDI  R26,HIGH(0x4)
	CPC  R31,R26
	BRNE _0x150
	LDI  R30,LOW(13)
	LDI  R31,HIGH(13)
	RJMP _0x65E
; 0000 042A              case 5:{chonchu=29;break;}
_0x150:
	CPI  R30,LOW(0x5)
	LDI  R26,HIGH(0x5)
	CPC  R31,R26
	BREQ _0x65D
; 0000 042B              case 6:{chonchu=29;break;}
	CPI  R30,LOW(0x6)
	LDI  R26,HIGH(0x6)
	CPC  R31,R26
	BREQ _0x65D
; 0000 042C              case 7:{chonchu='T'-65;break;}
	CPI  R30,LOW(0x7)
	LDI  R26,HIGH(0x7)
	CPC  R31,R26
	BRNE _0x153
	LDI  R30,LOW(19)
	LDI  R31,HIGH(19)
	RJMP _0x65E
; 0000 042D              case 8:{chonchu='H'-65;break;}
_0x153:
	CPI  R30,LOW(0x8)
	LDI  R26,HIGH(0x8)
	CPC  R31,R26
	BRNE _0x154
	LDI  R30,LOW(7)
	LDI  R31,HIGH(7)
	RJMP _0x65E
; 0000 042E              case 9:{chonchu=43;break;}
_0x154:
	CPI  R30,LOW(0x9)
	LDI  R26,HIGH(0x9)
	CPC  R31,R26
	BRNE _0x155
	LDI  R30,LOW(43)
	LDI  R31,HIGH(43)
	RJMP _0x65E
; 0000 042F              case 10:{chonchu='I'-65;break;}
_0x155:
	CPI  R30,LOW(0xA)
	LDI  R26,HIGH(0xA)
	CPC  R31,R26
	BRNE _0x157
	LDI  R30,LOW(8)
	LDI  R31,HIGH(8)
	RJMP _0x65E
; 0000 0430              default:{chonchu=29;break;}
_0x157:
_0x65D:
	LDI  R30,LOW(29)
	LDI  R31,HIGH(29)
_0x65E:
	__PUTW1R 7,8
; 0000 0431            };
_0x14B:
; 0000 0432           ma[i-1][7]= ma[i-1][7] | ((chu[chonchu][i-1] & (0x80>>dem) ) >> (7-dem));
	CALL SUBOPT_0x17
	CALL SUBOPT_0x62
; 0000 0433       }
	SUBI R17,-1
	RJMP _0x147
_0x148:
; 0000 0434     dem++;if(dem==8){dem=0;dem1++;}
	CALL SUBOPT_0x60
	BRNE _0x158
	CALL SUBOPT_0x61
; 0000 0435     for(i=0;i<5;i++){hienthi();} // hien thi
_0x158:
	LDI  R17,LOW(0)
_0x15A:
	CPI  R17,5
	BRSH _0x15B
	RCALL _hienthi
	SUBI R17,-1
	RJMP _0x15A
_0x15B:
; 0000 0436 }
	RJMP _0x2000006
;
;//----------------------Dich Ram sang trai (quet chu DO SANG)------------------------//
;void chaychu6()
; 0000 043A {
_chaychu6:
; 0000 043B   unsigned char i,y;
; 0000 043C   for(y=5;y<8;y++)
	ST   -Y,R17
	ST   -Y,R16
;	i -> R17
;	y -> R16
	LDI  R16,LOW(5)
_0x15D:
	CPI  R16,8
	BRSH _0x15E
; 0000 043D   {
; 0000 043E       for(i=1;i<17;i++)
	LDI  R17,LOW(1)
_0x160:
	CPI  R17,17
	BRSH _0x161
; 0000 043F       {
; 0000 0440           ma[i-1][y-1]= ma[i-1][y-1] << 1;
	CALL SUBOPT_0x17
	SBIW R30,1
	CALL SUBOPT_0x1B
	MOVW R26,R30
	CALL SUBOPT_0x1C
	CALL SUBOPT_0x58
	SBIW R30,1
	CALL SUBOPT_0x1B
	MOVW R26,R30
	CALL SUBOPT_0x1C
	CALL SUBOPT_0x59
; 0000 0441           ma[i-1][y-1]= ma[i-1][y-1] | ((ma[i-1][y] & 0x80 ) >>7);
	SBIW R30,1
	CALL SUBOPT_0x1B
	MOVW R26,R30
	CALL SUBOPT_0x1C
	CALL SUBOPT_0x5A
	SBIW R30,1
	CALL SUBOPT_0x1B
	MOVW R26,R30
	CALL SUBOPT_0x1C
	CALL SUBOPT_0x5B
	SBIW R30,1
	CALL SUBOPT_0x1B
	CALL SUBOPT_0x1D
	CALL SUBOPT_0x5C
; 0000 0442       }
	SUBI R17,-1
	RJMP _0x160
_0x161:
; 0000 0443   }
	SUBI R16,-1
	RJMP _0x15D
_0x15E:
; 0000 0444   for(i=1;i<17;i++)
	LDI  R17,LOW(1)
_0x163:
	CPI  R17,17
	BRLO PC+3
	JMP _0x164
; 0000 0445       {
; 0000 0446           ma[i-1][7]= ma[i-1][7] << 1;
	CALL SUBOPT_0x17
	CALL SUBOPT_0x29
	CALL SUBOPT_0x5D
; 0000 0447            switch (dem1)
	__GETW1R 5,6
; 0000 0448            {
; 0000 0449              case 0:{chonchu=36;break;}
	SBIW R30,0
	BRNE _0x168
	LDI  R30,LOW(36)
	LDI  R31,HIGH(36)
	RJMP _0x65F
; 0000 044A              case 1:{chonchu='N'-65;break;}
_0x168:
	CPI  R30,LOW(0x1)
	LDI  R26,HIGH(0x1)
	CPC  R31,R26
	BRNE _0x169
	LDI  R30,LOW(13)
	LDI  R31,HIGH(13)
	RJMP _0x65F
; 0000 044B              case 2:{chonchu='G'-65;break;}
_0x169:
	CPI  R30,LOW(0x2)
	LDI  R26,HIGH(0x2)
	CPC  R31,R26
	BRNE _0x16A
	LDI  R30,LOW(6)
	LDI  R31,HIGH(6)
	RJMP _0x65F
; 0000 044C              case 3:{chonchu=29;break;}
_0x16A:
	CPI  R30,LOW(0x3)
	LDI  R26,HIGH(0x3)
	CPC  R31,R26
	BREQ _0x660
; 0000 044D              case 4:{chonchu=29;break;}
	CPI  R30,LOW(0x4)
	LDI  R26,HIGH(0x4)
	CPC  R31,R26
	BREQ _0x660
; 0000 044E              case 5:{chonchu=45;break;}
	CPI  R30,LOW(0x5)
	LDI  R26,HIGH(0x5)
	CPC  R31,R26
	BRNE _0x16D
	LDI  R30,LOW(45)
	LDI  R31,HIGH(45)
	RJMP _0x65F
; 0000 044F              case 6:{chonchu=44;break;}
_0x16D:
	CPI  R30,LOW(0x6)
	LDI  R26,HIGH(0x6)
	CPC  R31,R26
	BRNE _0x16E
	LDI  R30,LOW(44)
	LDI  R31,HIGH(44)
	RJMP _0x65F
; 0000 0450              case 7:{chonchu=29;break;}
_0x16E:
	CPI  R30,LOW(0x7)
	LDI  R26,HIGH(0x7)
	CPC  R31,R26
	BREQ _0x660
; 0000 0451              case 8:{chonchu='S'-65;break;}
	CPI  R30,LOW(0x8)
	LDI  R26,HIGH(0x8)
	CPC  R31,R26
	BRNE _0x171
	LDI  R30,LOW(18)
	LDI  R31,HIGH(18)
	RJMP _0x65F
; 0000 0452              default:{chonchu=29;break;}
_0x171:
_0x660:
	LDI  R30,LOW(29)
	LDI  R31,HIGH(29)
_0x65F:
	__PUTW1R 7,8
; 0000 0453            };
; 0000 0454 
; 0000 0455           ma[i-1][7]= ma[i-1][7] | ((chu[chonchu][i-1] & (0x80>>dem) ) >> (7-dem));
	CALL SUBOPT_0x17
	CALL SUBOPT_0x62
; 0000 0456       }
	SUBI R17,-1
	RJMP _0x163
_0x164:
; 0000 0457     dem++;if(dem==8){dem=0;dem1++;}
	CALL SUBOPT_0x60
	BRNE _0x172
	CALL SUBOPT_0x61
; 0000 0458     for(i=0;i<5;i++){hienthi();} // hien thi
_0x172:
	LDI  R17,LOW(0)
_0x174:
	CPI  R17,5
	BRSH _0x175
	RCALL _hienthi
	SUBI R17,-1
	RJMP _0x174
_0x175:
; 0000 0459 }
	RJMP _0x2000006
;
;//----------------------Dich Ram sang trai (quet chu BAO THUC)------------------------//
;void chaychu7()
; 0000 045D {
_chaychu7:
; 0000 045E   unsigned char i,y;
; 0000 045F   for(y=5;y<8;y++)
	ST   -Y,R17
	ST   -Y,R16
;	i -> R17
;	y -> R16
	LDI  R16,LOW(5)
_0x177:
	CPI  R16,8
	BRSH _0x178
; 0000 0460   {
; 0000 0461       for(i=1;i<17;i++)
	LDI  R17,LOW(1)
_0x17A:
	CPI  R17,17
	BRSH _0x17B
; 0000 0462       {
; 0000 0463           ma[i-1][y-1]= ma[i-1][y-1] << 1;
	CALL SUBOPT_0x17
	SBIW R30,1
	CALL SUBOPT_0x1B
	MOVW R26,R30
	CALL SUBOPT_0x1C
	CALL SUBOPT_0x58
	SBIW R30,1
	CALL SUBOPT_0x1B
	MOVW R26,R30
	CALL SUBOPT_0x1C
	CALL SUBOPT_0x59
; 0000 0464           ma[i-1][y-1]= ma[i-1][y-1] | ((ma[i-1][y] & 0x80 ) >>7);
	SBIW R30,1
	CALL SUBOPT_0x1B
	MOVW R26,R30
	CALL SUBOPT_0x1C
	CALL SUBOPT_0x5A
	SBIW R30,1
	CALL SUBOPT_0x1B
	MOVW R26,R30
	CALL SUBOPT_0x1C
	CALL SUBOPT_0x5B
	SBIW R30,1
	CALL SUBOPT_0x1B
	CALL SUBOPT_0x1D
	CALL SUBOPT_0x5C
; 0000 0465       }
	SUBI R17,-1
	RJMP _0x17A
_0x17B:
; 0000 0466   }
	SUBI R16,-1
	RJMP _0x177
_0x178:
; 0000 0467   for(i=1;i<17;i++)
	LDI  R17,LOW(1)
_0x17D:
	CPI  R17,17
	BRLO PC+3
	JMP _0x17E
; 0000 0468       {
; 0000 0469           ma[i-1][7]= ma[i-1][7] << 1;
	CALL SUBOPT_0x17
	CALL SUBOPT_0x29
	CALL SUBOPT_0x5D
; 0000 046A            switch (dem1)
	__GETW1R 5,6
; 0000 046B            {
; 0000 046C              case 0:{chonchu='T'-65;break;}
	SBIW R30,0
	BRNE _0x182
	LDI  R30,LOW(19)
	LDI  R31,HIGH(19)
	RJMP _0x661
; 0000 046D              case 1:{chonchu='H'-65;break;}
_0x182:
	CPI  R30,LOW(0x1)
	LDI  R26,HIGH(0x1)
	CPC  R31,R26
	BRNE _0x183
	LDI  R30,LOW(7)
	LDI  R31,HIGH(7)
	RJMP _0x661
; 0000 046E              case 2:{chonchu=33;break;}
_0x183:
	CPI  R30,LOW(0x2)
	LDI  R26,HIGH(0x2)
	CPC  R31,R26
	BRNE _0x184
	LDI  R30,LOW(33)
	LDI  R31,HIGH(33)
	RJMP _0x661
; 0000 046F              case 3:{chonchu='C'-65;break;}
_0x184:
	CPI  R30,LOW(0x3)
	LDI  R26,HIGH(0x3)
	CPC  R31,R26
	BRNE _0x185
	LDI  R30,LOW(2)
	LDI  R31,HIGH(2)
	RJMP _0x661
; 0000 0470              case 4:{chonchu=29;break;}
_0x185:
	CPI  R30,LOW(0x4)
	LDI  R26,HIGH(0x4)
	CPC  R31,R26
	BREQ _0x662
; 0000 0471              case 5:{chonchu=29;break;}
	CPI  R30,LOW(0x5)
	LDI  R26,HIGH(0x5)
	CPC  R31,R26
	BREQ _0x662
; 0000 0472              case 6:{chonchu='B'-65;break;}
	CPI  R30,LOW(0x6)
	LDI  R26,HIGH(0x6)
	CPC  R31,R26
	BRNE _0x188
	LDI  R30,LOW(1)
	LDI  R31,HIGH(1)
	RJMP _0x661
; 0000 0473              case 7:{chonchu=36;break;}
_0x188:
	CPI  R30,LOW(0x7)
	LDI  R26,HIGH(0x7)
	CPC  R31,R26
	BRNE _0x189
	LDI  R30,LOW(36)
	LDI  R31,HIGH(36)
	RJMP _0x661
; 0000 0474              case 8:{chonchu='O'-65;break;}
_0x189:
	CPI  R30,LOW(0x8)
	LDI  R26,HIGH(0x8)
	CPC  R31,R26
	BRNE _0x18B
	LDI  R30,LOW(14)
	LDI  R31,HIGH(14)
	RJMP _0x661
; 0000 0475              default:{chonchu=29;break;}
_0x18B:
_0x662:
	LDI  R30,LOW(29)
	LDI  R31,HIGH(29)
_0x661:
	__PUTW1R 7,8
; 0000 0476            };
; 0000 0477 
; 0000 0478           ma[i-1][7]= ma[i-1][7] | ((chu[chonchu][i-1] & (0x80>>dem) ) >> (7-dem));
	CALL SUBOPT_0x17
	CALL SUBOPT_0x62
; 0000 0479       }
	SUBI R17,-1
	RJMP _0x17D
_0x17E:
; 0000 047A     dem++;if(dem==8){dem=0;dem1++;}
	CALL SUBOPT_0x60
	BRNE _0x18C
	CALL SUBOPT_0x61
; 0000 047B     for(i=0;i<5;i++){hienthi();} // hien thi
_0x18C:
	LDI  R17,LOW(0)
_0x18E:
	CPI  R17,5
	BRSH _0x18F
	RCALL _hienthi
	SUBI R17,-1
	RJMP _0x18E
_0x18F:
; 0000 047C }
	RJMP _0x2000006
;
;//----------------------Dich Ram sang trai (quet chu BU GIO)------------------------//
;void chaychu8()
; 0000 0480 {
_chaychu8:
; 0000 0481   unsigned char i,y;
; 0000 0482   for(y=5;y<8;y++)
	ST   -Y,R17
	ST   -Y,R16
;	i -> R17
;	y -> R16
	LDI  R16,LOW(5)
_0x191:
	CPI  R16,8
	BRSH _0x192
; 0000 0483   {
; 0000 0484       for(i=1;i<17;i++)
	LDI  R17,LOW(1)
_0x194:
	CPI  R17,17
	BRSH _0x195
; 0000 0485       {
; 0000 0486           ma[i-1][y-1]= ma[i-1][y-1] << 1;
	CALL SUBOPT_0x17
	SBIW R30,1
	CALL SUBOPT_0x1B
	MOVW R26,R30
	CALL SUBOPT_0x1C
	CALL SUBOPT_0x58
	SBIW R30,1
	CALL SUBOPT_0x1B
	MOVW R26,R30
	CALL SUBOPT_0x1C
	CALL SUBOPT_0x59
; 0000 0487           ma[i-1][y-1]= ma[i-1][y-1] | ((ma[i-1][y] & 0x80 ) >>7);
	SBIW R30,1
	CALL SUBOPT_0x1B
	MOVW R26,R30
	CALL SUBOPT_0x1C
	CALL SUBOPT_0x5A
	SBIW R30,1
	CALL SUBOPT_0x1B
	MOVW R26,R30
	CALL SUBOPT_0x1C
	CALL SUBOPT_0x5B
	SBIW R30,1
	CALL SUBOPT_0x1B
	CALL SUBOPT_0x1D
	CALL SUBOPT_0x5C
; 0000 0488       }
	SUBI R17,-1
	RJMP _0x194
_0x195:
; 0000 0489   }
	SUBI R16,-1
	RJMP _0x191
_0x192:
; 0000 048A   for(i=1;i<17;i++)
	LDI  R17,LOW(1)
_0x197:
	CPI  R17,17
	BRLO PC+3
	JMP _0x198
; 0000 048B       {
; 0000 048C           ma[i-1][7]= ma[i-1][7] << 1;
	CALL SUBOPT_0x17
	CALL SUBOPT_0x29
	CALL SUBOPT_0x5D
; 0000 048D            switch (dem1)
	__GETW1R 5,6
; 0000 048E            {
; 0000 048F              case 0:{chonchu='I'-65;break;}
	SBIW R30,0
	BRNE _0x19C
	LDI  R30,LOW(8)
	LDI  R31,HIGH(8)
	RJMP _0x663
; 0000 0490              case 1:{chonchu=43;break;}
_0x19C:
	CPI  R30,LOW(0x1)
	LDI  R26,HIGH(0x1)
	CPC  R31,R26
	BRNE _0x19D
	LDI  R30,LOW(43)
	LDI  R31,HIGH(43)
	RJMP _0x663
; 0000 0491              case 2:{chonchu=29;break;}
_0x19D:
	CPI  R30,LOW(0x2)
	LDI  R26,HIGH(0x2)
	CPC  R31,R26
	BREQ _0x664
; 0000 0492              case 3:{chonchu=29;break;}
	CPI  R30,LOW(0x3)
	LDI  R26,HIGH(0x3)
	CPC  R31,R26
	BREQ _0x664
; 0000 0493              case 4:{chonchu='B'-65;break;}
	CPI  R30,LOW(0x4)
	LDI  R26,HIGH(0x4)
	CPC  R31,R26
	BRNE _0x1A0
	LDI  R30,LOW(1)
	LDI  R31,HIGH(1)
	RJMP _0x663
; 0000 0494              case 5:{chonchu=46;break;}
_0x1A0:
	CPI  R30,LOW(0x5)
	LDI  R26,HIGH(0x5)
	CPC  R31,R26
	BRNE _0x1A1
	LDI  R30,LOW(46)
	LDI  R31,HIGH(46)
	RJMP _0x663
; 0000 0495              case 6:{chonchu=29;break;}
_0x1A1:
	CPI  R30,LOW(0x6)
	LDI  R26,HIGH(0x6)
	CPC  R31,R26
	BREQ _0x664
; 0000 0496              case 7:{chonchu='G'-65;break;}
	CPI  R30,LOW(0x7)
	LDI  R26,HIGH(0x7)
	CPC  R31,R26
	BRNE _0x1A4
	LDI  R30,LOW(6)
	LDI  R31,HIGH(6)
	RJMP _0x663
; 0000 0497              default:{chonchu=29;break;}
_0x1A4:
_0x664:
	LDI  R30,LOW(29)
	LDI  R31,HIGH(29)
_0x663:
	__PUTW1R 7,8
; 0000 0498            };
; 0000 0499 
; 0000 049A           ma[i-1][7]= ma[i-1][7] | ((chu[chonchu][i-1] & (0x80>>dem) ) >> (7-dem));
	CALL SUBOPT_0x17
	CALL SUBOPT_0x62
; 0000 049B       }
	SUBI R17,-1
	RJMP _0x197
_0x198:
; 0000 049C     dem++;if(dem==8){dem=0;dem1++;}
	CALL SUBOPT_0x60
	BRNE _0x1A5
	CALL SUBOPT_0x61
; 0000 049D     for(i=0;i<5;i++){hienthi();} // hien thi
_0x1A5:
	LDI  R17,LOW(0)
_0x1A7:
	CPI  R17,5
	BRSH _0x1A8
	CALL _hienthi
	SUBI R17,-1
	RJMP _0x1A7
_0x1A8:
; 0000 049E }
	RJMP _0x2000006
;
;
;
;//----------------------Dich Ram sang trai (quet chu Trang Thai)------------------------//
;void chaychutrangthai()
; 0000 04A4 {
_chaychutrangthai:
; 0000 04A5   unsigned char i,y;
; 0000 04A6   for(y=5;y<8;y++)
	ST   -Y,R17
	ST   -Y,R16
;	i -> R17
;	y -> R16
	LDI  R16,LOW(5)
_0x1AA:
	CPI  R16,8
	BRSH _0x1AB
; 0000 04A7   {
; 0000 04A8       for(i=1;i<17;i++)
	LDI  R17,LOW(1)
_0x1AD:
	CPI  R17,17
	BRSH _0x1AE
; 0000 04A9       {
; 0000 04AA           ma[i-1][y-1]= ma[i-1][y-1] << 1;
	CALL SUBOPT_0x17
	SBIW R30,1
	CALL SUBOPT_0x1B
	MOVW R26,R30
	CALL SUBOPT_0x1C
	CALL SUBOPT_0x58
	SBIW R30,1
	CALL SUBOPT_0x1B
	MOVW R26,R30
	CALL SUBOPT_0x1C
	CALL SUBOPT_0x59
; 0000 04AB           ma[i-1][y-1]= ma[i-1][y-1] | ((ma[i-1][y] & 0x80 ) >>7);
	SBIW R30,1
	CALL SUBOPT_0x1B
	MOVW R26,R30
	CALL SUBOPT_0x1C
	CALL SUBOPT_0x5A
	SBIW R30,1
	CALL SUBOPT_0x1B
	MOVW R26,R30
	CALL SUBOPT_0x1C
	CALL SUBOPT_0x5B
	SBIW R30,1
	CALL SUBOPT_0x1B
	CALL SUBOPT_0x1D
	CALL SUBOPT_0x5C
; 0000 04AC       }
	SUBI R17,-1
	RJMP _0x1AD
_0x1AE:
; 0000 04AD   }
	SUBI R16,-1
	RJMP _0x1AA
_0x1AB:
; 0000 04AE   for(i=1;i<17;i++)
	LDI  R17,LOW(1)
_0x1B0:
	CPI  R17,17
	BRLO PC+3
	JMP _0x1B1
; 0000 04AF       {
; 0000 04B0           ma[i-1][7]= ma[i-1][7] << 1;
	CALL SUBOPT_0x17
	CALL SUBOPT_0x29
	CALL SUBOPT_0x5D
; 0000 04B1            switch (dem1)
	__GETW1R 5,6
; 0000 04B2            {
; 0000 04B3              case 0:{chonchu='G'-65;break;}
	SBIW R30,0
	BRNE _0x1B5
	LDI  R30,LOW(6)
	LDI  R31,HIGH(6)
	RJMP _0x665
; 0000 04B4              case 1:{chonchu=29;break;}
_0x1B5:
	CPI  R30,LOW(0x1)
	LDI  R26,HIGH(0x1)
	CPC  R31,R26
	BRNE _0x1B6
	RJMP _0x666
; 0000 04B5              case 2:{chonchu='T'-65;break;}
_0x1B6:
	CPI  R30,LOW(0x2)
	LDI  R26,HIGH(0x2)
	CPC  R31,R26
	BRNE _0x1B7
	LDI  R30,LOW(19)
	LDI  R31,HIGH(19)
	RJMP _0x665
; 0000 04B6              case 3:{chonchu='H'-65;break;}
_0x1B7:
	CPI  R30,LOW(0x3)
	LDI  R26,HIGH(0x3)
	CPC  R31,R26
	BRNE _0x1B8
	LDI  R30,LOW(7)
	LDI  R31,HIGH(7)
	RJMP _0x665
; 0000 04B7              case 4:{chonchu=36;break;}
_0x1B8:
	CPI  R30,LOW(0x4)
	LDI  R26,HIGH(0x4)
	CPC  R31,R26
	BRNE _0x1B9
	LDI  R30,LOW(36)
	LDI  R31,HIGH(36)
	RJMP _0x665
; 0000 04B8              case 5:{chonchu='I'-65;break;}
_0x1B9:
	CPI  R30,LOW(0x5)
	LDI  R26,HIGH(0x5)
	CPC  R31,R26
	BRNE _0x1BA
	LDI  R30,LOW(8)
	LDI  R31,HIGH(8)
	RJMP _0x665
; 0000 04B9              case 6:{chonchu=29;break;}
_0x1BA:
	CPI  R30,LOW(0x6)
	LDI  R26,HIGH(0x6)
	CPC  R31,R26
	BREQ _0x666
; 0000 04BA              case 7:{chonchu=29;break;}
	CPI  R30,LOW(0x7)
	LDI  R26,HIGH(0x7)
	CPC  R31,R26
	BREQ _0x666
; 0000 04BB              case 8:{chonchu='T'-65;break;}
	CPI  R30,LOW(0x8)
	LDI  R26,HIGH(0x8)
	CPC  R31,R26
	BRNE _0x1BD
	LDI  R30,LOW(19)
	LDI  R31,HIGH(19)
	RJMP _0x665
; 0000 04BC              case 9:{chonchu='R'-65;break;}
_0x1BD:
	CPI  R30,LOW(0x9)
	LDI  R26,HIGH(0x9)
	CPC  R31,R26
	BRNE _0x1BE
	LDI  R30,LOW(17)
	LDI  R31,HIGH(17)
	RJMP _0x665
; 0000 04BD              case 10:{chonchu=49;break;}
_0x1BE:
	CPI  R30,LOW(0xA)
	LDI  R26,HIGH(0xA)
	CPC  R31,R26
	BRNE _0x1BF
	LDI  R30,LOW(49)
	LDI  R31,HIGH(49)
	RJMP _0x665
; 0000 04BE              case 11:{chonchu='N'-65;break;}
_0x1BF:
	CPI  R30,LOW(0xB)
	LDI  R26,HIGH(0xB)
	CPC  R31,R26
	BRNE _0x1C1
	LDI  R30,LOW(13)
	LDI  R31,HIGH(13)
	RJMP _0x665
; 0000 04BF              default:{chonchu=29;break;}
_0x1C1:
_0x666:
	LDI  R30,LOW(29)
	LDI  R31,HIGH(29)
_0x665:
	__PUTW1R 7,8
; 0000 04C0            };
; 0000 04C1 
; 0000 04C2           ma[i-1][7]= ma[i-1][7] | ((chu[chonchu][i-1] & (0x80>>dem) ) >> (7-dem));
	CALL SUBOPT_0x17
	CALL SUBOPT_0x62
; 0000 04C3       }
	SUBI R17,-1
	RJMP _0x1B0
_0x1B1:
; 0000 04C4     dem++;if(dem==8){dem=0;dem1++;}
	CALL SUBOPT_0x60
	BRNE _0x1C2
	CALL SUBOPT_0x61
; 0000 04C5     for(i=0;i<5;i++){hienthi();} // hien thi
_0x1C2:
	LDI  R17,LOW(0)
_0x1C4:
	CPI  R17,5
	BRSH _0x1C5
	CALL _hienthi
	SUBI R17,-1
	RJMP _0x1C4
_0x1C5:
; 0000 04C6 }
_0x2000006:
	LD   R16,Y+
	LD   R17,Y+
	RET
;
;
;//----------------------Dich Ram sang trai chay ngay thang nam------------------------//
;
;void chaychu4()
; 0000 04CC {
_chaychu4:
; 0000 04CD   unsigned char i,y;
; 0000 04CE   for(y=1;y<8;y++)
	ST   -Y,R17
	ST   -Y,R16
;	i -> R17
;	y -> R16
	LDI  R16,LOW(1)
_0x1C7:
	CPI  R16,8
	BRSH _0x1C8
; 0000 04CF   {
; 0000 04D0       for(i=1;i<17;i++)
	LDI  R17,LOW(1)
_0x1CA:
	CPI  R17,17
	BRSH _0x1CB
; 0000 04D1       {
; 0000 04D2           ma[i-1][y-1]= ma[i-1][y-1] << 1;
	CALL SUBOPT_0x17
	SBIW R30,1
	CALL SUBOPT_0x1B
	MOVW R26,R30
	CALL SUBOPT_0x1C
	CALL SUBOPT_0x58
	SBIW R30,1
	CALL SUBOPT_0x1B
	MOVW R26,R30
	CALL SUBOPT_0x1C
	CALL SUBOPT_0x59
; 0000 04D3           ma[i-1][y-1]= ma[i-1][y-1] | ((ma[i-1][y] & 0x80 ) >>7);
	SBIW R30,1
	CALL SUBOPT_0x1B
	MOVW R26,R30
	CALL SUBOPT_0x1C
	CALL SUBOPT_0x5A
	SBIW R30,1
	CALL SUBOPT_0x1B
	MOVW R26,R30
	CALL SUBOPT_0x1C
	CALL SUBOPT_0x5B
	SBIW R30,1
	CALL SUBOPT_0x1B
	CALL SUBOPT_0x1D
	CALL SUBOPT_0x5C
; 0000 04D4       }
	SUBI R17,-1
	RJMP _0x1CA
_0x1CB:
; 0000 04D5   }
	SUBI R16,-1
	RJMP _0x1C7
_0x1C8:
; 0000 04D6 
; 0000 04D7 
; 0000 04D8    for(i=1;i<17;i++)
	LDI  R17,LOW(1)
_0x1CD:
	CPI  R17,17
	BRLO PC+3
	JMP _0x1CE
; 0000 04D9       {
; 0000 04DA           ma[i-1][7]= ma[i-1][7] << 1;
	CALL SUBOPT_0x17
	CALL SUBOPT_0x29
	CALL SUBOPT_0x5D
; 0000 04DB            switch (dem1)
	__GETW1R 5,6
; 0000 04DC            {
; 0000 04DD              case 0:{ma[i-1][7]= ma[i-1][7] | ((chu['H'-65][i-1] & (0x80>>dem) ) >> (7-dem));break;}
	SBIW R30,0
	BRNE _0x1D2
	CALL SUBOPT_0x17
	CALL SUBOPT_0x63
	__POINTW1FN _chu,112
	RJMP _0x667
; 0000 04DE              case 1:{ma[i-1][7]= ma[i-1][7] | ((chu[39][i-1] & (0x80>>dem) ) >> (7-dem));break;}
_0x1D2:
	CPI  R30,LOW(0x1)
	LDI  R26,HIGH(0x1)
	CPC  R31,R26
	BRNE _0x1D3
	CALL SUBOPT_0x17
	CALL SUBOPT_0x63
	__POINTW1FN _chu,624
	RJMP _0x667
; 0000 04DF              case 2:{ma[i-1][7]= ma[i-1][7] | ((chu['M'-65][i-1] & (0x80>>dem) ) >> (7-dem));break;}
_0x1D3:
	CPI  R30,LOW(0x2)
	LDI  R26,HIGH(0x2)
	CPC  R31,R26
	BRNE _0x1D4
	CALL SUBOPT_0x17
	CALL SUBOPT_0x63
	__POINTW1FN _chu,192
	RJMP _0x667
; 0000 04E0              case 3:{ma[i-1][7]= ma[i-1][7] | ((chu[29][i-1] & (0x80>>dem) ) >> (7-dem));break;}
_0x1D4:
	CPI  R30,LOW(0x3)
	LDI  R26,HIGH(0x3)
	CPC  R31,R26
	BRNE _0x1D5
	RJMP _0x668
; 0000 04E1              case 4:{ma[i-1][7]= ma[i-1][7] | ((chu['N'-65][i-1] & (0x80>>dem) ) >> (7-dem));break;}
_0x1D5:
	CPI  R30,LOW(0x4)
	LDI  R26,HIGH(0x4)
	CPC  R31,R26
	BRNE _0x1D6
	CALL SUBOPT_0x17
	CALL SUBOPT_0x63
	__POINTW1FN _chu,208
	RJMP _0x667
; 0000 04E2              case 5:{ma[i-1][7]= ma[i-1][7] | ((chu['A'-65][i-1] & (0x80>>dem) ) >> (7-dem));break;}
_0x1D6:
	CPI  R30,LOW(0x5)
	LDI  R26,HIGH(0x5)
	CPC  R31,R26
	BRNE _0x1D7
	CALL SUBOPT_0x17
	CALL SUBOPT_0x5E
	SUBI R30,LOW(-_chu*2)
	SBCI R31,HIGH(-_chu*2)
	RJMP _0x669
; 0000 04E3              case 6:{ma[i-1][7]= ma[i-1][7] | ((chu['Y'-65][i-1] & (0x80>>dem) ) >> (7-dem));break;}
_0x1D7:
	CPI  R30,LOW(0x6)
	LDI  R26,HIGH(0x6)
	CPC  R31,R26
	BRNE _0x1D8
	CALL SUBOPT_0x17
	CALL SUBOPT_0x63
	__POINTW1FN _chu,384
	RJMP _0x667
; 0000 04E4              case 7:{ma[i-1][7]= ma[i-1][7] | ((chu[29][i-1] & (0x80>>dem) ) >> (7-dem));break;}
_0x1D8:
	CPI  R30,LOW(0x7)
	LDI  R26,HIGH(0x7)
	CPC  R31,R26
	BRNE _0x1D9
	RJMP _0x668
; 0000 04E5              case 8:{ma[i-1][7]= ma[i-1][7] | ((chu[t1][i-1] & (0x80>>dem) ) >> (7-dem));break;}
_0x1D9:
	CPI  R30,LOW(0x8)
	LDI  R26,HIGH(0x8)
	CPC  R31,R26
	BRNE _0x1DA
	CALL SUBOPT_0x17
	CALL SUBOPT_0x63
	LDS  R30,_t1
	CALL SUBOPT_0x64
	RJMP _0x667
; 0000 04E6              case 9:{ma[i-1][7]= ma[i-1][7] | ((chu[t2][i-1] & (0x80>>dem) ) >> (7-dem)); break;}
_0x1DA:
	CPI  R30,LOW(0x9)
	LDI  R26,HIGH(0x9)
	CPC  R31,R26
	BRNE _0x1DB
	CALL SUBOPT_0x17
	CALL SUBOPT_0x63
	LDS  R30,_t2
	CALL SUBOPT_0x64
	RJMP _0x667
; 0000 04E7              case 10:{ma[i-1][7]= ma[i-1][7] | ((chu[t3][i-1] & (0x80>>dem) ) >> (7-dem));break;}
_0x1DB:
	CPI  R30,LOW(0xA)
	LDI  R26,HIGH(0xA)
	CPC  R31,R26
	BRNE _0x1DC
	CALL SUBOPT_0x17
	CALL SUBOPT_0x63
	LDS  R30,_t3
	CALL SUBOPT_0x64
	RJMP _0x667
; 0000 04E8              case 11:{ma[i-1][7]= ma[i-1][7] | ((chu[t4][i-1] & (0x80>>dem) ) >> (7-dem));break;}
_0x1DC:
	CPI  R30,LOW(0xB)
	LDI  R26,HIGH(0xB)
	CPC  R31,R26
	BRNE _0x1DD
	CALL SUBOPT_0x17
	CALL SUBOPT_0x63
	LDS  R30,_t4
	CALL SUBOPT_0x64
	RJMP _0x667
; 0000 04E9              case 12:{ma[i-1][7]= ma[i-1][7] | ((chu[t5][i-1] & (0x80>>dem) ) >> (7-dem));break;}
_0x1DD:
	CPI  R30,LOW(0xC)
	LDI  R26,HIGH(0xC)
	CPC  R31,R26
	BRNE _0x1DE
	CALL SUBOPT_0x17
	CALL SUBOPT_0x63
	LDS  R30,_t5
	CALL SUBOPT_0x64
	RJMP _0x667
; 0000 04EA              case 13:{ma[i-1][7]= ma[i-1][7] | ((chu[t6][i-1] & (0x80>>dem) ) >> (7-dem));break;}
_0x1DE:
	CPI  R30,LOW(0xD)
	LDI  R26,HIGH(0xD)
	CPC  R31,R26
	BRNE _0x1DF
	CALL SUBOPT_0x17
	CALL SUBOPT_0x63
	LDS  R30,_t6
	CALL SUBOPT_0x64
	RJMP _0x667
; 0000 04EB              case 14:{ma[i-1][7]= ma[i-1][7] | ((chu[t7][i-1] & (0x80>>dem) ) >> (7-dem));break;}
_0x1DF:
	CPI  R30,LOW(0xE)
	LDI  R26,HIGH(0xE)
	CPC  R31,R26
	BRNE _0x1E0
	CALL SUBOPT_0x17
	CALL SUBOPT_0x63
	LDS  R30,_t7
	CALL SUBOPT_0x64
	RJMP _0x667
; 0000 04EC              case 15:{ma[i-1][7]= ma[i-1][7] | ((chu[29][i-1] & (0x80>>dem) ) >> (7-dem));break;}
_0x1E0:
	CPI  R30,LOW(0xF)
	LDI  R26,HIGH(0xF)
	CPC  R31,R26
	BRNE _0x1E1
	RJMP _0x668
; 0000 04ED              case 16:{ma[i-1][7]= ma[i-1][7] | ((chu['N'-65][i-1] & (0x80>>dem) ) >> (7-dem)); break;}
_0x1E1:
	CPI  R30,LOW(0x10)
	LDI  R26,HIGH(0x10)
	CPC  R31,R26
	BRNE _0x1E2
	CALL SUBOPT_0x17
	CALL SUBOPT_0x63
	__POINTW1FN _chu,208
	RJMP _0x667
; 0000 04EE              case 17:{ma[i-1][7]= ma[i-1][7] | ((chu['G'-65][i-1] & (0x80>>dem) ) >> (7-dem));break;}
_0x1E2:
	CPI  R30,LOW(0x11)
	LDI  R26,HIGH(0x11)
	CPC  R31,R26
	BRNE _0x1E3
	CALL SUBOPT_0x17
	CALL SUBOPT_0x63
	__POINTW1FN _chu,96
	RJMP _0x667
; 0000 04EF              case 18:{ma[i-1][7]= ma[i-1][7] | ((chu[35][i-1] & (0x80>>dem) ) >> (7-dem));break;}
_0x1E3:
	CPI  R30,LOW(0x12)
	LDI  R26,HIGH(0x12)
	CPC  R31,R26
	BRNE _0x1E4
	CALL SUBOPT_0x17
	CALL SUBOPT_0x63
	__POINTW1FN _chu,560
	RJMP _0x667
; 0000 04F0              case 19:{ma[i-1][7]= ma[i-1][7] | ((chu['Y'-65][i-1] & (0x80>>dem) ) >> (7-dem));break;}
_0x1E4:
	CPI  R30,LOW(0x13)
	LDI  R26,HIGH(0x13)
	CPC  R31,R26
	BRNE _0x1E5
	CALL SUBOPT_0x17
	CALL SUBOPT_0x63
	__POINTW1FN _chu,384
	RJMP _0x667
; 0000 04F1              case 20:{ma[i-1][7]= ma[i-1][7] | ((chu[29][i-1] & (0x80>>dem) ) >> (7-dem));break;}
_0x1E5:
	CPI  R30,LOW(0x14)
	LDI  R26,HIGH(0x14)
	CPC  R31,R26
	BRNE _0x1E6
	RJMP _0x668
; 0000 04F2              case 21:{ma[i-1][7]= ma[i-1][7] | ((so[ngay/10][i-1] & (0x80>>dem) ) >> (7-dem)); break;}
_0x1E6:
	CPI  R30,LOW(0x15)
	LDI  R26,HIGH(0x15)
	CPC  R31,R26
	BRNE _0x1E7
	CALL SUBOPT_0x17
	CALL SUBOPT_0x29
	__PUTW1R 23,24
	LD   R22,Z
	CALL SUBOPT_0x65
	CALL SUBOPT_0x1E
	SBIW R30,1
	ADD  R30,R26
	ADC  R31,R27
	RJMP _0x669
; 0000 04F3              case 22:{ma[i-1][7]= ma[i-1][7] | ((so[ngay%10][i-1] & (0x80>>dem) ) >> (7-dem)); break;}
_0x1E7:
	CPI  R30,LOW(0x16)
	LDI  R26,HIGH(0x16)
	CPC  R31,R26
	BRNE _0x1E8
	CALL SUBOPT_0x17
	CALL SUBOPT_0x29
	__PUTW1R 23,24
	LD   R22,Z
	CALL SUBOPT_0x66
	CALL SUBOPT_0x1E
	SBIW R30,1
	ADD  R30,R26
	ADC  R31,R27
	RJMP _0x669
; 0000 04F4              case 23:{ma[i-1][7]= ma[i-1][7] | ((chu[38][i-1] & (0x80>>dem) ) >> (7-dem));break;}
_0x1E8:
	CPI  R30,LOW(0x17)
	LDI  R26,HIGH(0x17)
	CPC  R31,R26
	BRNE _0x1E9
	CALL SUBOPT_0x17
	CALL SUBOPT_0x63
	__POINTW1FN _chu,608
	RJMP _0x667
; 0000 04F5              case 24:{ma[i-1][7]= ma[i-1][7] | ((so[thang/10][i-1] & (0x80>>dem) ) >> (7-dem)); break;}
_0x1E9:
	CPI  R30,LOW(0x18)
	LDI  R26,HIGH(0x18)
	CPC  R31,R26
	BRNE _0x1EA
	CALL SUBOPT_0x17
	CALL SUBOPT_0x29
	__PUTW1R 23,24
	LD   R22,Z
	CALL SUBOPT_0x67
	CALL SUBOPT_0x1E
	SBIW R30,1
	ADD  R30,R26
	ADC  R31,R27
	RJMP _0x669
; 0000 04F6              case 25:{ma[i-1][7]= ma[i-1][7] | ((so[thang%10][i-1] & (0x80>>dem) ) >> (7-dem)); break;}
_0x1EA:
	CPI  R30,LOW(0x19)
	LDI  R26,HIGH(0x19)
	CPC  R31,R26
	BRNE _0x1EB
	CALL SUBOPT_0x17
	CALL SUBOPT_0x29
	__PUTW1R 23,24
	LD   R22,Z
	CALL SUBOPT_0x68
	CALL SUBOPT_0x1E
	SBIW R30,1
	ADD  R30,R26
	ADC  R31,R27
	RJMP _0x669
; 0000 04F7              case 26:{ma[i-1][7]= ma[i-1][7] | ((chu[38][i-1] & (0x80>>dem) ) >> (7-dem)); break;}
_0x1EB:
	CPI  R30,LOW(0x1A)
	LDI  R26,HIGH(0x1A)
	CPC  R31,R26
	BRNE _0x1EC
	CALL SUBOPT_0x17
	CALL SUBOPT_0x63
	__POINTW1FN _chu,608
	RJMP _0x667
; 0000 04F8              case 27:{ma[i-1][7]= ma[i-1][7] | ((so[2][i-1] & (0x80>>dem) ) >> (7-dem));break;}
_0x1EC:
	CPI  R30,LOW(0x1B)
	LDI  R26,HIGH(0x1B)
	CPC  R31,R26
	BRNE _0x1ED
	CALL SUBOPT_0x17
	CALL SUBOPT_0x63
	__POINTW1FN _so,32
	RJMP _0x667
; 0000 04F9              case 28:{ma[i-1][7]= ma[i-1][7] | ((so[0][i-1] & (0x80>>dem) ) >> (7-dem));break;}
_0x1ED:
	CPI  R30,LOW(0x1C)
	LDI  R26,HIGH(0x1C)
	CPC  R31,R26
	BRNE _0x1EE
	CALL SUBOPT_0x17
	CALL SUBOPT_0x5E
	SUBI R30,LOW(-_so*2)
	SBCI R31,HIGH(-_so*2)
	RJMP _0x669
; 0000 04FA              case 29:{ma[i-1][7]= ma[i-1][7] | ((so[nam/10][i-1] & (0x80>>dem) ) >> (7-dem));break;}
_0x1EE:
	CPI  R30,LOW(0x1D)
	LDI  R26,HIGH(0x1D)
	CPC  R31,R26
	BRNE _0x1EF
	CALL SUBOPT_0x17
	CALL SUBOPT_0x29
	__PUTW1R 23,24
	LD   R22,Z
	CALL SUBOPT_0x41
	CALL SUBOPT_0x1E
	SBIW R30,1
	ADD  R30,R26
	ADC  R31,R27
	RJMP _0x669
; 0000 04FB              case 30:{ma[i-1][7]= ma[i-1][7] | ((so[nam%10][i-1] & (0x80>>dem) ) >> (7-dem));break;}
_0x1EF:
	CPI  R30,LOW(0x1E)
	LDI  R26,HIGH(0x1E)
	CPC  R31,R26
	BRNE _0x1F0
	CALL SUBOPT_0x17
	CALL SUBOPT_0x29
	__PUTW1R 23,24
	LD   R22,Z
	CALL SUBOPT_0x43
	CALL SUBOPT_0x1E
	SBIW R30,1
	ADD  R30,R26
	ADC  R31,R27
	RJMP _0x669
; 0000 04FC              case 31:{ma[i-1][7]= ma[i-1][7] | ((chu[29][i-1] & (0x80>>dem) ) >> (7-dem));break;}
_0x1F0:
	CPI  R30,LOW(0x1F)
	LDI  R26,HIGH(0x1F)
	CPC  R31,R26
	BRNE _0x1F1
	RJMP _0x668
; 0000 04FD              case 32:{ma[i-1][7]= ma[i-1][7] | ((so[nhietdo/10][i-1] & (0x80>>dem) ) >> (7-dem)); break;}
_0x1F1:
	CPI  R30,LOW(0x20)
	LDI  R26,HIGH(0x20)
	CPC  R31,R26
	BRNE _0x1F2
	CALL SUBOPT_0x17
	CALL SUBOPT_0x29
	CALL SUBOPT_0x69
	CALL __DIVW21U
	CALL SUBOPT_0x1E
	SBIW R30,1
	ADD  R30,R26
	ADC  R31,R27
	RJMP _0x669
; 0000 04FE              case 33:{ma[i-1][7]= ma[i-1][7] | ((so[nhietdo%10][i-1] & (0x80>>dem) ) >> (7-dem)); break;}
_0x1F2:
	CPI  R30,LOW(0x21)
	LDI  R26,HIGH(0x21)
	CPC  R31,R26
	BRNE _0x1F3
	CALL SUBOPT_0x17
	CALL SUBOPT_0x29
	CALL SUBOPT_0x69
	CALL __MODW21U
	CALL SUBOPT_0x1E
	SBIW R30,1
	ADD  R30,R26
	ADC  R31,R27
	RJMP _0x669
; 0000 04FF              case 34:{ma[i-1][7]= ma[i-1][7] | ((chu[41][i-1] & (0x80>>dem) ) >> (7-dem)); break;}
_0x1F3:
	CPI  R30,LOW(0x22)
	LDI  R26,HIGH(0x22)
	CPC  R31,R26
	BRNE _0x1F4
	CALL SUBOPT_0x17
	CALL SUBOPT_0x63
	__POINTW1FN _chu,656
	RJMP _0x667
; 0000 0500              case 35:{ma[i-1][7]= ma[i-1][7] | ((chu['C'-65][i-1] & (0x80>>dem) ) >> (7-dem)); break;}
_0x1F4:
	CPI  R30,LOW(0x23)
	LDI  R26,HIGH(0x23)
	CPC  R31,R26
	BRNE _0x1F5
	CALL SUBOPT_0x17
	CALL SUBOPT_0x63
	__POINTW1FN _chu,32
	RJMP _0x667
; 0000 0501              case 36:{ma[i-1][7]= ma[i-1][7] | ((chu[29][i-1] & (0x80>>dem) ) >> (7-dem)); break;}
_0x1F5:
	CPI  R30,LOW(0x24)
	LDI  R26,HIGH(0x24)
	CPC  R31,R26
	BRNE _0x1F6
	RJMP _0x668
; 0000 0502              case 37:{ma[i-1][7]= ma[i-1][7] | ((chu[34][i-1] & (0x80>>dem) ) >> (7-dem)); break;}
_0x1F6:
	CPI  R30,LOW(0x25)
	LDI  R26,HIGH(0x25)
	CPC  R31,R26
	BRNE _0x1F7
	CALL SUBOPT_0x17
	CALL SUBOPT_0x63
	__POINTW1FN _chu,544
	RJMP _0x667
; 0000 0503              case 38:{ma[i-1][7]= ma[i-1][7] | ((chu['L'-65][i-1] & (0x80>>dem) ) >> (7-dem)); break;}
_0x1F7:
	CPI  R30,LOW(0x26)
	LDI  R26,HIGH(0x26)
	CPC  R31,R26
	BRNE _0x1F8
	CALL SUBOPT_0x17
	CALL SUBOPT_0x63
	__POINTW1FN _chu,176
	RJMP _0x667
; 0000 0504              case 39:{ma[i-1][7]= ma[i-1][7] | ((chu[28][i-1] & (0x80>>dem) ) >> (7-dem)); break;}
_0x1F8:
	CPI  R30,LOW(0x27)
	LDI  R26,HIGH(0x27)
	CPC  R31,R26
	BRNE _0x1F9
	CALL SUBOPT_0x17
	CALL SUBOPT_0x63
	__POINTW1FN _chu,448
	RJMP _0x667
; 0000 0505              case 40:{ma[i-1][7]= ma[i-1][7] | ((so[ngay_al/10][i-1] & (0x80>>dem) ) >> (7-dem)); break;}
_0x1F9:
	CPI  R30,LOW(0x28)
	LDI  R26,HIGH(0x28)
	CPC  R31,R26
	BRNE _0x1FA
	CALL SUBOPT_0x17
	CALL SUBOPT_0x29
	__PUTW1R 23,24
	LD   R22,Z
	LDS  R26,_ngay_al
	CALL SUBOPT_0x14
	CALL SUBOPT_0x1E
	SBIW R30,1
	ADD  R30,R26
	ADC  R31,R27
	RJMP _0x669
; 0000 0506              case 41:{ma[i-1][7]= ma[i-1][7] | ((so[ngay_al%10][i-1] & (0x80>>dem) ) >> (7-dem)); break;}
_0x1FA:
	CPI  R30,LOW(0x29)
	LDI  R26,HIGH(0x29)
	CPC  R31,R26
	BRNE _0x1FB
	CALL SUBOPT_0x17
	CALL SUBOPT_0x29
	__PUTW1R 23,24
	LD   R22,Z
	LDS  R26,_ngay_al
	CALL SUBOPT_0x15
	CALL SUBOPT_0x1E
	SBIW R30,1
	ADD  R30,R26
	ADC  R31,R27
	RJMP _0x669
; 0000 0507              case 42:{ma[i-1][7]= ma[i-1][7] | ((chu[38][i-1] & (0x80>>dem) ) >> (7-dem)); break;}
_0x1FB:
	CPI  R30,LOW(0x2A)
	LDI  R26,HIGH(0x2A)
	CPC  R31,R26
	BRNE _0x1FC
	CALL SUBOPT_0x17
	CALL SUBOPT_0x63
	__POINTW1FN _chu,608
	RJMP _0x667
; 0000 0508              case 43:{ma[i-1][7]= ma[i-1][7] | ((so[thang_al/10][i-1] & (0x80>>dem) ) >> (7-dem)); break;}
_0x1FC:
	CPI  R30,LOW(0x2B)
	LDI  R26,HIGH(0x2B)
	CPC  R31,R26
	BRNE _0x1FD
	CALL SUBOPT_0x17
	CALL SUBOPT_0x29
	__PUTW1R 23,24
	LD   R22,Z
	LDS  R26,_thang_al
	CALL SUBOPT_0x14
	CALL SUBOPT_0x1E
	SBIW R30,1
	ADD  R30,R26
	ADC  R31,R27
	RJMP _0x669
; 0000 0509              case 44:{ma[i-1][7]= ma[i-1][7] | ((so[thang_al%10][i-1] & (0x80>>dem) ) >> (7-dem)); break;}
_0x1FD:
	CPI  R30,LOW(0x2C)
	LDI  R26,HIGH(0x2C)
	CPC  R31,R26
	BRNE _0x1FF
	CALL SUBOPT_0x17
	CALL SUBOPT_0x29
	__PUTW1R 23,24
	LD   R22,Z
	LDS  R26,_thang_al
	CALL SUBOPT_0x15
	CALL SUBOPT_0x1E
	SBIW R30,1
	ADD  R30,R26
	ADC  R31,R27
	RJMP _0x669
; 0000 050A              default:{ma[i-1][7]= ma[i-1][7] | ((chu[29][i-1] & (0x80>>dem) ) >> (7-dem));break;}
_0x1FF:
_0x668:
	MOV  R30,R17
	LDI  R31,0
	CALL SUBOPT_0x63
	__POINTW1FN _chu,464
_0x667:
	ADD  R30,R0
	ADC  R31,R1
_0x669:
	LPM  R1,Z
	MOV  R30,R3
	LDI  R26,LOW(128)
	CALL __LSRB12
	AND  R30,R1
	LDI  R31,0
	MOVW R26,R30
	LDI  R30,LOW(7)
	LDI  R31,HIGH(7)
	SUB  R30,R3
	SBC  R31,R4
	CALL __ASRW12
	OR   R30,R22
	__GETW2R 23,24
	ST   X,R30
; 0000 050B            };
; 0000 050C 
; 0000 050D       }
	SUBI R17,-1
	RJMP _0x1CD
_0x1CE:
; 0000 050E     dem++;if(dem==8){dem=0;dem1++;}
	CALL SUBOPT_0x60
	BRNE _0x200
	CALL SUBOPT_0x61
; 0000 050F     for(i=0;i<3;i++){hienthi();} // hien thi
_0x200:
	LDI  R17,LOW(0)
_0x202:
	CPI  R17,3
	BRSH _0x203
	CALL _hienthi
	SUBI R17,-1
	RJMP _0x202
_0x203:
; 0000 0510 }
	RJMP _0x2000005
;
;
;
;void chaychuchucmungsinhnhat()
; 0000 0515 {
_chaychuchucmungsinhnhat:
; 0000 0516    unsigned char i,y;
; 0000 0517   for(y=1;y<8;y++)
	ST   -Y,R17
	ST   -Y,R16
;	i -> R17
;	y -> R16
	LDI  R16,LOW(1)
_0x205:
	CPI  R16,8
	BRSH _0x206
; 0000 0518   {
; 0000 0519       for(i=1;i<17;i++)
	LDI  R17,LOW(1)
_0x208:
	CPI  R17,17
	BRSH _0x209
; 0000 051A       {
; 0000 051B           ma[i-1][y-1]= ma[i-1][y-1] << 1;
	CALL SUBOPT_0x17
	SBIW R30,1
	CALL SUBOPT_0x1B
	MOVW R26,R30
	CALL SUBOPT_0x1C
	CALL SUBOPT_0x58
	SBIW R30,1
	CALL SUBOPT_0x1B
	MOVW R26,R30
	CALL SUBOPT_0x1C
	CALL SUBOPT_0x59
; 0000 051C           ma[i-1][y-1]= ma[i-1][y-1] | ((ma[i-1][y] & 0x80 ) >>7);
	SBIW R30,1
	CALL SUBOPT_0x1B
	MOVW R26,R30
	CALL SUBOPT_0x1C
	CALL SUBOPT_0x5A
	SBIW R30,1
	CALL SUBOPT_0x1B
	MOVW R26,R30
	CALL SUBOPT_0x1C
	CALL SUBOPT_0x5B
	SBIW R30,1
	CALL SUBOPT_0x1B
	CALL SUBOPT_0x1D
	CALL SUBOPT_0x5C
; 0000 051D       }
	SUBI R17,-1
	RJMP _0x208
_0x209:
; 0000 051E   }
	SUBI R16,-1
	RJMP _0x205
_0x206:
; 0000 051F 
; 0000 0520   for(i=1;i<17;i++)
	LDI  R17,LOW(1)
_0x20B:
	CPI  R17,17
	BRLO PC+3
	JMP _0x20C
; 0000 0521  {
; 0000 0522           ma[i-1][7]= ma[i-1][7] << 1;
	CALL SUBOPT_0x17
	CALL SUBOPT_0x29
	CALL SUBOPT_0x5D
; 0000 0523            switch (dem1)
	__GETW1R 5,6
; 0000 0524           {
; 0000 0525              case 0:{ma[i-1][7]= ma[i-1][7]  | ((chu['C'-65][i-1] & (0x80>>dem) ) >> (7-dem));break;}
	SBIW R30,0
	BRNE _0x210
	CALL SUBOPT_0x17
	CALL SUBOPT_0x63
	__POINTW1FN _chu,32
	RJMP _0x66A
; 0000 0526              case 1:{ma[i-1][7]= ma[i-1][7]  | ((chu['H'-65][i-1] & (0x80>>dem) ) >> (7-dem));break;}
_0x210:
	CPI  R30,LOW(0x1)
	LDI  R26,HIGH(0x1)
	CPC  R31,R26
	BRNE _0x211
	CALL SUBOPT_0x17
	CALL SUBOPT_0x63
	__POINTW1FN _chu,112
	RJMP _0x66A
; 0000 0527              case 2:{ma[i-1][7]= ma[i-1][7]  | ((chu[33][i-1] & (0x80>>dem) ) >> (7-dem));break;}
_0x211:
	CPI  R30,LOW(0x2)
	LDI  R26,HIGH(0x2)
	CPC  R31,R26
	BRNE _0x212
	CALL SUBOPT_0x17
	CALL SUBOPT_0x63
	__POINTW1FN _chu,528
	RJMP _0x66A
; 0000 0528              case 3:{ma[i-1][7]= ma[i-1][7]  | ((chu['C'-65][i-1] & (0x80>>dem) ) >> (7-dem));break;}
_0x212:
	CPI  R30,LOW(0x3)
	LDI  R26,HIGH(0x3)
	CPC  R31,R26
	BRNE _0x213
	CALL SUBOPT_0x17
	CALL SUBOPT_0x63
	__POINTW1FN _chu,32
	RJMP _0x66A
; 0000 0529              case 4:{ma[i-1][7]= ma[i-1][7]  | ((chu[29][i-1] & (0x80>>dem) ) >> (7-dem));break;}
_0x213:
	CPI  R30,LOW(0x4)
	LDI  R26,HIGH(0x4)
	CPC  R31,R26
	BRNE _0x214
	RJMP _0x66B
; 0000 052A              case 5:{ma[i-1][7]= ma[i-1][7]  | ((chu['M'-65][i-1] & (0x80>>dem) ) >> (7-dem));break;}
_0x214:
	CPI  R30,LOW(0x5)
	LDI  R26,HIGH(0x5)
	CPC  R31,R26
	BRNE _0x215
	CALL SUBOPT_0x17
	CALL SUBOPT_0x63
	__POINTW1FN _chu,192
	RJMP _0x66A
; 0000 052B              case 6:{ma[i-1][7]= ma[i-1][7]  | ((chu[46][i-1] & (0x80>>dem) ) >> (7-dem));break;}
_0x215:
	CPI  R30,LOW(0x6)
	LDI  R26,HIGH(0x6)
	CPC  R31,R26
	BRNE _0x216
	CALL SUBOPT_0x17
	CALL SUBOPT_0x63
	__POINTW1FN _chu,736
	RJMP _0x66A
; 0000 052C              case 7:{ma[i-1][7]= ma[i-1][7]  | ((chu['N'-65][i-1] & (0x80>>dem) ) >> (7-dem));break;}
_0x216:
	CPI  R30,LOW(0x7)
	LDI  R26,HIGH(0x7)
	CPC  R31,R26
	BRNE _0x217
	CALL SUBOPT_0x17
	CALL SUBOPT_0x63
	__POINTW1FN _chu,208
	RJMP _0x66A
; 0000 052D              case 8:{ma[i-1][7]= ma[i-1][7]  | ((chu['G'-65][i-1] & (0x80>>dem) ) >> (7-dem));break;}
_0x217:
	CPI  R30,LOW(0x8)
	LDI  R26,HIGH(0x8)
	CPC  R31,R26
	BRNE _0x218
	CALL SUBOPT_0x17
	CALL SUBOPT_0x63
	__POINTW1FN _chu,96
	RJMP _0x66A
; 0000 052E              case 9:{ma[i-1][7]= ma[i-1][7]  | ((chu[29][i-1] & (0x80>>dem) ) >> (7-dem)); break;}
_0x218:
	CPI  R30,LOW(0x9)
	LDI  R26,HIGH(0x9)
	CPC  R31,R26
	BRNE _0x219
	RJMP _0x66B
; 0000 052F              case 10:{ma[i-1][7]= ma[i-1][7] | ((chu['S'-65][i-1] & (0x80>>dem) ) >> (7-dem));break;}
_0x219:
	CPI  R30,LOW(0xA)
	LDI  R26,HIGH(0xA)
	CPC  R31,R26
	BRNE _0x21A
	CALL SUBOPT_0x17
	CALL SUBOPT_0x63
	__POINTW1FN _chu,288
	RJMP _0x66A
; 0000 0530              case 11:{ma[i-1][7]= ma[i-1][7] | ((chu['I'-65][i-1] & (0x80>>dem) ) >> (7-dem));break;}
_0x21A:
	CPI  R30,LOW(0xB)
	LDI  R26,HIGH(0xB)
	CPC  R31,R26
	BRNE _0x21B
	CALL SUBOPT_0x17
	CALL SUBOPT_0x63
	__POINTW1FN _chu,128
	RJMP _0x66A
; 0000 0531              case 12:{ma[i-1][7]= ma[i-1][7] | ((chu['N'-65][i-1] & (0x80>>dem) ) >> (7-dem));break;}
_0x21B:
	CPI  R30,LOW(0xC)
	LDI  R26,HIGH(0xC)
	CPC  R31,R26
	BRNE _0x21C
	CALL SUBOPT_0x17
	CALL SUBOPT_0x63
	__POINTW1FN _chu,208
	RJMP _0x66A
; 0000 0532              case 13:{ma[i-1][7]= ma[i-1][7] | ((chu['H'-65][i-1] & (0x80>>dem) ) >> (7-dem));break;}
_0x21C:
	CPI  R30,LOW(0xD)
	LDI  R26,HIGH(0xD)
	CPC  R31,R26
	BRNE _0x21D
	CALL SUBOPT_0x17
	CALL SUBOPT_0x63
	__POINTW1FN _chu,112
	RJMP _0x66A
; 0000 0533              case 14:{ma[i-1][7]= ma[i-1][7] | ((chu[29][i-1] & (0x80>>dem) ) >> (7-dem));break;}
_0x21D:
	CPI  R30,LOW(0xE)
	LDI  R26,HIGH(0xE)
	CPC  R31,R26
	BREQ _0x66B
; 0000 0534              case 15:{ma[i-1][7]= ma[i-1][7] | ((chu['N'-65][i-1] & (0x80>>dem) ) >> (7-dem));break;}
	CPI  R30,LOW(0xF)
	LDI  R26,HIGH(0xF)
	CPC  R31,R26
	BRNE _0x21F
	CALL SUBOPT_0x17
	CALL SUBOPT_0x63
	__POINTW1FN _chu,208
	RJMP _0x66A
; 0000 0535              case 16:{ma[i-1][7]= ma[i-1][7] | ((chu['H'-65][i-1] & (0x80>>dem) ) >> (7-dem)); break;}
_0x21F:
	CPI  R30,LOW(0x10)
	LDI  R26,HIGH(0x10)
	CPC  R31,R26
	BRNE _0x220
	CALL SUBOPT_0x17
	CALL SUBOPT_0x63
	__POINTW1FN _chu,112
	RJMP _0x66A
; 0000 0536              case 17:{ma[i-1][7]= ma[i-1][7] | ((chu[40][i-1] & (0x80>>dem) ) >> (7-dem));break;}
_0x220:
	CPI  R30,LOW(0x11)
	LDI  R26,HIGH(0x11)
	CPC  R31,R26
	BRNE _0x221
	CALL SUBOPT_0x17
	CALL SUBOPT_0x63
	__POINTW1FN _chu,640
	RJMP _0x66A
; 0000 0537              case 18:{ma[i-1][7]= ma[i-1][7] | ((chu['T'-65][i-1] & (0x80>>dem) ) >> (7-dem));break;}
_0x221:
	CPI  R30,LOW(0x12)
	LDI  R26,HIGH(0x12)
	CPC  R31,R26
	BRNE _0x223
	CALL SUBOPT_0x17
	CALL SUBOPT_0x63
	__POINTW1FN _chu,304
	RJMP _0x66A
; 0000 0538              default:{ma[i-1][7]= ma[i-1][7] | ((chu[29][i-1] & (0x80>>dem) ) >> (7-dem));break;}
_0x223:
_0x66B:
	MOV  R30,R17
	LDI  R31,0
	CALL SUBOPT_0x63
	__POINTW1FN _chu,464
_0x66A:
	ADD  R30,R0
	ADC  R31,R1
	CALL SUBOPT_0x5F
; 0000 0539            };
; 0000 053A 
; 0000 053B  }
	SUBI R17,-1
	RJMP _0x20B
_0x20C:
; 0000 053C     dem++;if(dem==8){dem=0;dem1++;}
	CALL SUBOPT_0x60
	BRNE _0x224
	CALL SUBOPT_0x61
; 0000 053D     for(i=0;i<3;i++){hienthi();} // hien thi
_0x224:
	LDI  R17,LOW(0)
_0x226:
	CPI  R17,3
	BRSH _0x227
	CALL _hienthi
	SUBI R17,-1
	RJMP _0x226
_0x227:
; 0000 053E 
; 0000 053F  }
	RJMP _0x2000005
;
;//----------------------Dich Ram sang phai------------------------//
;
;void chaychu3()
; 0000 0544 {
_chaychu3:
; 0000 0545   unsigned char i,y;
; 0000 0546   for(y=8;y>1;y--)
	ST   -Y,R17
	ST   -Y,R16
;	i -> R17
;	y -> R16
	LDI  R16,LOW(8)
_0x229:
	CPI  R16,2
	BRSH PC+3
	JMP _0x22A
; 0000 0547   {
; 0000 0548       for(i=1;i<17;i++)
	LDI  R17,LOW(1)
_0x22C:
	CPI  R17,17
	BRSH _0x22D
; 0000 0549       {
; 0000 054A           ma[i-1][y-1]= ma[i-1][y-1] >> 1;
	CALL SUBOPT_0x17
	SBIW R30,1
	CALL SUBOPT_0x1B
	MOVW R26,R30
	CALL SUBOPT_0x1C
	CALL SUBOPT_0x58
	SBIW R30,1
	CALL SUBOPT_0x1B
	MOVW R26,R30
	CALL SUBOPT_0x1C
	SBIW R30,1
	ADD  R26,R30
	ADC  R27,R31
	LD   R30,X
	CALL SUBOPT_0x12
	MOVW R26,R0
	ST   X,R30
; 0000 054B           ma[i-1][y-1]= ma[i-1][y-1] | ((ma[i-1][y-2] & 0x01 ) <<7);
	CALL SUBOPT_0x17
	SBIW R30,1
	CALL SUBOPT_0x1B
	MOVW R26,R30
	CALL SUBOPT_0x1C
	CALL SUBOPT_0x5A
	SBIW R30,1
	CALL SUBOPT_0x1B
	MOVW R26,R30
	CALL SUBOPT_0x1C
	CALL SUBOPT_0x5B
	SBIW R30,1
	CALL SUBOPT_0x1B
	MOVW R26,R30
	CALL SUBOPT_0x1C
	SBIW R30,2
	ADD  R26,R30
	ADC  R27,R31
	LD   R30,X
	ANDI R30,LOW(0x1)
	ROR  R30
	LDI  R30,0
	ROR  R30
	OR   R30,R0
	MOVW R26,R22
	ST   X,R30
; 0000 054C       }
	SUBI R17,-1
	RJMP _0x22C
_0x22D:
; 0000 054D   }
	SUBI R16,1
	RJMP _0x229
_0x22A:
; 0000 054E    for(i=1;i<17;i++)
	LDI  R17,LOW(1)
_0x22F:
	CPI  R17,17
	BRLO PC+3
	JMP _0x230
; 0000 054F       {
; 0000 0550           ma[i-1][0]= ma[i-1][0] >> 1;
	CALL SUBOPT_0x17
	SBIW R30,1
	CALL SUBOPT_0x1B
	MOVW R26,R30
	LD   R30,X
	CALL SUBOPT_0x12
	ST   X,R30
; 0000 0551            switch (dem1)
	__GETW1R 5,6
; 0000 0552            {
; 0000 0553              case 0:{chonchu=giay%10;break;}
	SBIW R30,0
	BRNE _0x234
	MOV  R26,R13
	CALL SUBOPT_0x15
	RJMP _0x66C
; 0000 0554              case 1:{chonchu=giay/10;break;}
_0x234:
	CPI  R30,LOW(0x1)
	LDI  R26,HIGH(0x1)
	CPC  R31,R26
	BRNE _0x235
	MOV  R26,R13
	CALL SUBOPT_0x14
	RJMP _0x66C
; 0000 0555              case 2:{chonchu=10;break;}
_0x235:
	CPI  R30,LOW(0x2)
	LDI  R26,HIGH(0x2)
	CPC  R31,R26
	BRNE _0x236
	LDI  R30,LOW(10)
	LDI  R31,HIGH(10)
	RJMP _0x66C
; 0000 0556              case 3:{chonchu=phut%10;break;}
_0x236:
	CPI  R30,LOW(0x3)
	LDI  R26,HIGH(0x3)
	CPC  R31,R26
	BRNE _0x237
	MOV  R26,R14
	CALL SUBOPT_0x15
	RJMP _0x66C
; 0000 0557              case 4:{chonchu=phut/10;break;}
_0x237:
	CPI  R30,LOW(0x4)
	LDI  R26,HIGH(0x4)
	CPC  R31,R26
	BRNE _0x238
	MOV  R26,R14
	CALL SUBOPT_0x14
	RJMP _0x66C
; 0000 0558              case 5:{chonchu=10;break;}
_0x238:
	CPI  R30,LOW(0x5)
	LDI  R26,HIGH(0x5)
	CPC  R31,R26
	BRNE _0x239
	LDI  R30,LOW(10)
	LDI  R31,HIGH(10)
	RJMP _0x66C
; 0000 0559              case 6:{chonchu=gio%10;break;}
_0x239:
	CPI  R30,LOW(0x6)
	LDI  R26,HIGH(0x6)
	CPC  R31,R26
	BRNE _0x23A
	MOV  R26,R9
	CALL SUBOPT_0x15
	RJMP _0x66C
; 0000 055A              case 7:{chonchu=gio/10;break;}
_0x23A:
	CPI  R30,LOW(0x7)
	LDI  R26,HIGH(0x7)
	CPC  R31,R26
	BRNE _0x23C
	MOV  R26,R9
	CALL SUBOPT_0x14
	RJMP _0x66C
; 0000 055B              default:{chonchu=1;break;}
_0x23C:
	LDI  R30,LOW(1)
	LDI  R31,HIGH(1)
_0x66C:
	__PUTW1R 7,8
; 0000 055C            };
; 0000 055D           ma[i-1][0]= ma[i-1][0] | ((so[chonchu][i-1] & (0x01<<dem) ) << (7-dem));
	CALL SUBOPT_0x17
	SBIW R30,1
	MOVW R0,R30
	CALL SUBOPT_0x1B
	__PUTW1R 23,24
	LD   R22,Z
	__GETW1R 7,8
	CALL SUBOPT_0x6A
	ADD  R30,R0
	ADC  R31,R1
	LPM  R1,Z
	MOV  R30,R3
	LDI  R26,LOW(1)
	CALL __LSLB12
	AND  R30,R1
	MOV  R26,R30
	LDI  R30,LOW(7)
	LDI  R31,HIGH(7)
	SUB  R30,R3
	SBC  R31,R4
	CALL __LSLB12
	OR   R30,R22
	__GETW2R 23,24
	ST   X,R30
; 0000 055E       }
	SUBI R17,-1
	RJMP _0x22F
_0x230:
; 0000 055F       dem++;if(dem==8){dem=0;dem1++;}
	CALL SUBOPT_0x60
	BRNE _0x23D
	CALL SUBOPT_0x61
; 0000 0560       for(i=0;i<2;i++){hienthi();} // hien thi
_0x23D:
	LDI  R17,LOW(0)
_0x23F:
	CPI  R17,2
	BRSH _0x240
	CALL _hienthi
	SUBI R17,-1
	RJMP _0x23F
_0x240:
; 0000 0561 }
	RJMP _0x2000005
;
;//----------------------------------------------------------------------------------//
;
;void chaychudongholed()
; 0000 0566 {
_chaychudongholed:
; 0000 0567  int i;
; 0000 0568  for(i=0;i<344;i++)
	ST   -Y,R17
	ST   -Y,R16
;	i -> R16,R17
	__GETWRN 16,17,0
_0x242:
	__CPWRN 16,17,344
	BRGE _0x243
; 0000 0569  {
; 0000 056A    chaychu();
	CALL _chaychu
; 0000 056B  }
	__ADDWRN 16,17,1
	RJMP _0x242
_0x243:
; 0000 056C  dem1=0;
	CLR  R5
	CLR  R6
; 0000 056D  dem=0;
	CLR  R3
	CLR  R4
; 0000 056E }
_0x2000005:
	LD   R16,Y+
	LD   R17,Y+
	RET
;
;void chaychuwwebsite()
; 0000 0571 {
_chaychuwwebsite:
; 0000 0572  unsigned char a,b,c;
; 0000 0573  //--------------------------------------quet xuong chu web ------------------------//
; 0000 0574  for(c=0;c<17;c++)
	CALL __SAVELOCR4
;	a -> R17
;	b -> R16
;	c -> R19
	LDI  R19,LOW(0)
_0x245:
	CPI  R19,17
	BRSH _0x246
; 0000 0575   {
; 0000 0576   ma[0][0]=chu['W'-65][17-c];
	__POINTWRFN 22,23,_chu,352
	CALL SUBOPT_0x19
	CALL SUBOPT_0x6B
	CALL SUBOPT_0x42
; 0000 0577   ma[0][1]=chu['E'-65][17-c];
	__POINTWRFN 22,23,_chu,64
	CALL SUBOPT_0x19
	CALL SUBOPT_0x6B
	CALL SUBOPT_0x44
; 0000 0578   ma[0][2]=chu['B'-65][17-c];
	__POINTWRFN 22,23,_chu,16
	CALL SUBOPT_0x19
	CALL SUBOPT_0x6B
	CALL SUBOPT_0x6C
; 0000 0579   for(b=0;b<3;b++){hienthi();}  // hien thi
	LDI  R16,LOW(0)
_0x248:
	CPI  R16,3
	BRSH _0x249
	CALL _hienthi
	SUBI R16,-1
	RJMP _0x248
_0x249:
; 0000 057A        for(a=16;a>1;a--)
	LDI  R17,LOW(16)
_0x24B:
	CPI  R17,2
	BRLO _0x24C
; 0000 057B          {
; 0000 057C            ma[a-1][0]=ma[a-2][0];
	CALL SUBOPT_0x17
	CALL SUBOPT_0x3D
	CALL SUBOPT_0x3E
	CALL SUBOPT_0x3F
; 0000 057D            ma[a-1][1]=ma[a-2][1];
	MOVW R0,R30
	CALL SUBOPT_0x20
	CALL SUBOPT_0x30
	CALL SUBOPT_0x40
; 0000 057E            ma[a-1][2]=ma[a-2][2];
	CALL SUBOPT_0x6D
	CALL SUBOPT_0x6E
	__ADDW1MN _ma,2
	LD   R30,Z
	ST   X,R30
; 0000 057F          }
	SUBI R17,1
	RJMP _0x24B
_0x24C:
; 0000 0580   }
	SUBI R19,-1
	RJMP _0x245
_0x246:
; 0000 0581  //------------------------------------------------------------------------------------
; 0000 0582  //--------------------------------------quet xuong chu site ------------------------//
; 0000 0583 for(c=0;c<17;c++)
	LDI  R19,LOW(0)
_0x24E:
	CPI  R19,17
	BRLO PC+3
	JMP _0x24F
; 0000 0584   {
; 0000 0585   ma[0][3]=chu['S'-65][17-c];
	__POINTWRFN 22,23,_chu,288
	CALL SUBOPT_0x19
	CALL SUBOPT_0x6B
	CALL SUBOPT_0x6F
; 0000 0586   ma[0][4]=chu['I'-65][17-c];
	CALL SUBOPT_0x70
	CALL SUBOPT_0x6B
	CALL SUBOPT_0x71
; 0000 0587   ma[0][5]=chu['T'-65][17-c];
	CALL SUBOPT_0x72
	CALL SUBOPT_0x6B
	CALL SUBOPT_0x73
; 0000 0588   ma[0][6]=chu['E'-65][17-c];
	__POINTWRFN 22,23,_chu,64
	CALL SUBOPT_0x19
	CALL SUBOPT_0x6B
	CALL SUBOPT_0x74
; 0000 0589        for(b=0;b<3;b++){hienthi();}  // hien thi
_0x251:
	CPI  R16,3
	BRSH _0x252
	CALL _hienthi
	SUBI R16,-1
	RJMP _0x251
_0x252:
; 0000 058A        for(a=16;a>1;a--)
	LDI  R17,LOW(16)
_0x254:
	CPI  R17,2
	BRLO _0x255
; 0000 058B          {
; 0000 058C            ma[a-1][3]=ma[a-2][3];
	CALL SUBOPT_0x17
	MOVW R0,R30
	CALL SUBOPT_0x23
	CALL SUBOPT_0x30
	CALL SUBOPT_0x38
; 0000 058D            ma[a-1][4]=ma[a-2][4];
	MOVW R0,R30
	CALL SUBOPT_0x25
	CALL SUBOPT_0x30
	CALL SUBOPT_0x39
; 0000 058E            ma[a-1][5]=ma[a-2][5];
	CALL SUBOPT_0x6D
	CALL SUBOPT_0x75
	CALL SUBOPT_0x76
; 0000 058F            ma[a-1][6]=ma[a-2][6];
	MOVW R0,R30
	CALL SUBOPT_0x27
	CALL SUBOPT_0x30
	CALL SUBOPT_0x77
; 0000 0590          }
	SUBI R17,1
	RJMP _0x254
_0x255:
; 0000 0591   }
	SUBI R19,-1
	RJMP _0x24E
_0x24F:
; 0000 0592   //------------------------------------------------------------------------------------//
; 0000 0593   //--------------------------------------nhap nhay giau 2 cham ------------------------//
; 0000 0594   for(c=0;c<10;c++)
	LDI  R19,LOW(0)
_0x257:
	CPI  R19,10
	BRSH _0x258
; 0000 0595   {
; 0000 0596     for(a=1;a<17;a++)
	LDI  R17,LOW(1)
_0x25A:
	CPI  R17,17
	BRSH _0x25B
; 0000 0597     {
; 0000 0598      ma[a-1][7]=0xFF;     // xoa dau 2 cham khoi man hinh
	CALL SUBOPT_0x17
	CALL SUBOPT_0x29
	LDI  R26,LOW(255)
	STD  Z+0,R26
; 0000 0599     }
	SUBI R17,-1
	RJMP _0x25A
_0x25B:
; 0000 059A     for(b=0;b<10;b++){hienthi();}      // hien thi ra ngoai
	LDI  R16,LOW(0)
_0x25D:
	CPI  R16,10
	BRSH _0x25E
	CALL _hienthi
	SUBI R16,-1
	RJMP _0x25D
_0x25E:
; 0000 059B 
; 0000 059C     for(a=1;a<17;a++)
	LDI  R17,LOW(1)
_0x260:
	CPI  R17,17
	BRSH _0x261
; 0000 059D     {
; 0000 059E      ma[a-1][7]=chu[28][a-1];     // ghi dau 2 cham vao man hinh
	CALL SUBOPT_0x17
	CALL SUBOPT_0x21
	__ADDW1MN _ma,7
	MOVW R0,R30
	__POINTW1FN _chu,448
	ADD  R30,R22
	ADC  R31,R23
	LPM  R30,Z
	MOVW R26,R0
	ST   X,R30
; 0000 059F     }
	SUBI R17,-1
	RJMP _0x260
_0x261:
; 0000 05A0     for(b=0;b<10;b++){hienthi();}      // hien thi ra ngoai
	LDI  R16,LOW(0)
_0x263:
	CPI  R16,10
	BRSH _0x264
	CALL _hienthi
	SUBI R16,-1
	RJMP _0x263
_0x264:
; 0000 05A1   }
	SUBI R19,-1
	RJMP _0x257
_0x258:
; 0000 05A2   //------------------------------------------------------------------------------------//
; 0000 05A3   //-------------------------goi ham chay chu gocdiy sang trai--------------------------//
; 0000 05A4    for(c=0;c<152;c++)
	LDI  R19,LOW(0)
_0x266:
	CPI  R19,152
	BRSH _0x267
; 0000 05A5   {
; 0000 05A6    chaychu2();
	CALL _chaychu2
; 0000 05A7   }
	SUBI R19,-1
	RJMP _0x266
_0x267:
; 0000 05A8   dem1=0;
	CLR  R5
	CLR  R6
; 0000 05A9   dem=0;
	CLR  R3
	CLR  R4
; 0000 05AA   sang=100;
	LDI  R30,LOW(100)
	LDI  R31,HIGH(100)
	__PUTW1R 11,12
; 0000 05AB   for(b=0;b<100;b++){hienthi();}      // delay 1 luc
	LDI  R16,LOW(0)
_0x269:
	CPI  R16,100
	BRSH _0x26A
	CALL _hienthi
	SUBI R16,-1
	RJMP _0x269
_0x26A:
; 0000 05AC   //------------------------------------------------------------------------------------//
; 0000 05AD   //---------------------------nap nang luong vao nut keo----------------------------------------//
; 0000 05AE   for(c=12;c>2;c--)
	LDI  R19,LOW(12)
_0x26C:
	CPI  R19,3
	BRLO _0x26D
; 0000 05AF   {
; 0000 05B0     sang=(11-(c-2))*100;   // thay doi do sang
	CALL SUBOPT_0x19
	SBIW R30,2
	LDI  R26,LOW(11)
	LDI  R27,HIGH(11)
	SUB  R26,R30
	SBC  R27,R31
	LDI  R30,LOW(100)
	LDI  R31,HIGH(100)
	CALL __MULW12
	__PUTW1R 11,12
; 0000 05B1     ma[c][0]=ma[c][0] & 0x9F ;for(b=0;b<50;b++){hienthi();}      // delay 1 luc
	CALL SUBOPT_0x19
	CALL SUBOPT_0x1B
	MOVW R26,R30
	LD   R30,X
	ANDI R30,LOW(0x9F)
	ST   X,R30
	LDI  R16,LOW(0)
_0x26F:
	CPI  R16,50
	BRSH _0x270
	CALL _hienthi
	SUBI R16,-1
	RJMP _0x26F
_0x270:
; 0000 05B2   }
	SUBI R19,1
	RJMP _0x26C
_0x26D:
; 0000 05B3   //---------------------------nhap nhay nut keo------------------------------------//
; 0000 05B4   for(c=0;c<10;c++)
	LDI  R19,LOW(0)
_0x272:
	CPI  R19,10
	BRSH _0x273
; 0000 05B5   {
; 0000 05B6     for(a=1;a<17;a++)
	LDI  R17,LOW(1)
_0x275:
	CPI  R17,17
	BRSH _0x276
; 0000 05B7     {
; 0000 05B8      ma[a-1][0]=0xFF;     // xoa nut keo khoi man hinh
	CALL SUBOPT_0x17
	SBIW R30,1
	CALL SUBOPT_0x1B
	LDI  R26,LOW(255)
	STD  Z+0,R26
; 0000 05B9     }
	SUBI R17,-1
	RJMP _0x275
_0x276:
; 0000 05BA     for(b=0;b<10;b++){hienthi();}      // hien thi ra ngoai
	LDI  R16,LOW(0)
_0x278:
	CPI  R16,10
	BRSH _0x279
	CALL _hienthi
	SUBI R16,-1
	RJMP _0x278
_0x279:
; 0000 05BB 
; 0000 05BC     for(a=1;a<17;a++)
	LDI  R17,LOW(1)
_0x27B:
	CPI  R17,17
	BRSH _0x27C
; 0000 05BD     {
; 0000 05BE      ma[a-1][0]=chu[31][a-1];     // ghi nut keo vao man hinh
	CALL SUBOPT_0x17
	SBIW R30,1
	MOVW R22,R30
	CALL SUBOPT_0x1B
	MOVW R0,R30
	__POINTW1FN _chu,496
	ADD  R30,R22
	ADC  R31,R23
	LPM  R30,Z
	MOVW R26,R0
	ST   X,R30
; 0000 05BF     }
	SUBI R17,-1
	RJMP _0x27B
_0x27C:
; 0000 05C0     for(b=0;b<10;b++){hienthi();}      // hien thi ra ngoai
	LDI  R16,LOW(0)
_0x27E:
	CPI  R16,10
	BRSH _0x27F
	CALL _hienthi
	SUBI R16,-1
	RJMP _0x27E
_0x27F:
; 0000 05C1   }
	SUBI R19,-1
	RJMP _0x272
_0x273:
; 0000 05C2  //---------------------------goi ham dich ram sang phai------------------------------------//
; 0000 05C3   laydosang();
	CALL _laydosang
; 0000 05C4    for(c=0;c<64;c++)
	LDI  R19,LOW(0)
_0x281:
	CPI  R19,64
	BRSH _0x282
; 0000 05C5   {
; 0000 05C6    chaychu3();
	RCALL _chaychu3
; 0000 05C7   }
	SUBI R19,-1
	RJMP _0x281
_0x282:
; 0000 05C8   dem=dem1=0;
	LDI  R30,LOW(0)
	LDI  R31,HIGH(0)
	__PUTW1R 5,6
	__PUTW1R 3,4
; 0000 05C9 }
	CALL __LOADLOCR4
	ADIW R28,4
	RET
;
;//--------------------------------------END-------------------------------------------------//
;
;//-----------------------------cai dat thoi gian-----------------------------------------//
;void caigio()
; 0000 05CF {
_caigio:
; 0000 05D0 unsigned char a,b,c;
; 0000 05D1   //--------------------------quet xuong chu GIO ---------------------------------------//
; 0000 05D2   for(c=0;c<17;c++)
	CALL __SAVELOCR4
;	a -> R17
;	b -> R16
;	c -> R19
	LDI  R19,LOW(0)
_0x284:
	CPI  R19,17
	BRLO PC+3
	JMP _0x285
; 0000 05D3   {
; 0000 05D4   ma[0][0]=chu['G'-65][17-c];
	CALL SUBOPT_0x78
	CALL SUBOPT_0x6B
	CALL SUBOPT_0x42
; 0000 05D5   ma[0][1]=chu['I'-65][17-c];
	CALL SUBOPT_0x70
	CALL SUBOPT_0x6B
	CALL SUBOPT_0x44
; 0000 05D6   ma[0][2]=chu[32][17-c];
	__POINTWRFN 22,23,_chu,512
	CALL SUBOPT_0x19
	CALL SUBOPT_0x6B
	CALL SUBOPT_0x6C
; 0000 05D7   ma[0][3]=so[10][17-c];
	CALL SUBOPT_0x79
	CALL SUBOPT_0x6B
	CALL SUBOPT_0x6F
; 0000 05D8   ma[0][4]=so[gio/10][17-c];
	MOV  R26,R9
	CALL SUBOPT_0x14
	CALL SUBOPT_0x33
	CALL SUBOPT_0x6B
	CALL SUBOPT_0x71
; 0000 05D9   ma[0][5]=so[gio%10][17-c];
	MOV  R26,R9
	CALL SUBOPT_0x15
	CALL SUBOPT_0x33
	CALL SUBOPT_0x6B
	CALL SUBOPT_0x73
; 0000 05DA   ma[0][6]=0xff;
	CALL SUBOPT_0x37
; 0000 05DB   ma[0][7]=0xff;
; 0000 05DC   for(b=0;b<3;b++){hienthi();}  // hien thi
_0x287:
	CPI  R16,3
	BRSH _0x288
	CALL _hienthi
	SUBI R16,-1
	RJMP _0x287
_0x288:
; 0000 05DD        for(a=16;a>1;a--)
	LDI  R17,LOW(16)
_0x28A:
	CPI  R17,2
	BRLO _0x28B
; 0000 05DE          {
; 0000 05DF            ma[a-1][0]=ma[a-2][0];
	CALL SUBOPT_0x17
	CALL SUBOPT_0x3D
	CALL SUBOPT_0x3E
	CALL SUBOPT_0x3F
; 0000 05E0            ma[a-1][1]=ma[a-2][1];
	MOVW R0,R30
	CALL SUBOPT_0x20
	CALL SUBOPT_0x30
	CALL SUBOPT_0x40
; 0000 05E1            ma[a-1][2]=ma[a-2][2];
	CALL SUBOPT_0x6D
	CALL SUBOPT_0x6E
	CALL SUBOPT_0x7A
; 0000 05E2            ma[a-1][3]=ma[a-2][3];
	MOVW R0,R30
	CALL SUBOPT_0x23
	CALL SUBOPT_0x30
	CALL SUBOPT_0x38
; 0000 05E3            ma[a-1][4]=ma[a-2][4];
	MOVW R0,R30
	CALL SUBOPT_0x25
	CALL SUBOPT_0x30
	CALL SUBOPT_0x39
; 0000 05E4            ma[a-1][5]=ma[a-2][5];
	CALL SUBOPT_0x6D
	CALL SUBOPT_0x75
	CALL SUBOPT_0x76
; 0000 05E5            ma[a-1][6]=ma[a-2][6];
	MOVW R0,R30
	CALL SUBOPT_0x27
	CALL SUBOPT_0x30
	CALL SUBOPT_0x31
; 0000 05E6            ma[a-1][7]=ma[a-2][7];
	MOVW R0,R30
	CALL SUBOPT_0x29
	CALL SUBOPT_0x30
	CALL SUBOPT_0x32
; 0000 05E7          }
	SUBI R17,1
	RJMP _0x28A
_0x28B:
; 0000 05E8   }
	SUBI R19,-1
	RJMP _0x284
_0x285:
; 0000 05E9   ma[0][2]=chu[32][0];
	__POINTW1FN _chu,512
	LPM  R0,Z
	__PUTBR0MN _ma,2
; 0000 05EA   while(1)
_0x28C:
; 0000 05EB   {
; 0000 05EC   hienthi(); // luon luon phai quet hien thi
	CALL SUBOPT_0x7B
; 0000 05ED   //-----------------------cai gio---------------------//
; 0000 05EE   //---code duoi dung de kiem tra nhan nut UP va cuon len tren
; 0000 05EF   if(up==0 || nut==20)
	BREQ _0x290
	LDS  R26,_nut
	CPI  R26,LOW(0x14)
	BREQ _0x290
	RJMP _0x28F
_0x290:
; 0000 05F0   {EIMSK=0x00;  // k cho phep ngat ngoai 0  <at328>
	CALL SUBOPT_0x7C
; 0000 05F1   nut=0;for(a=0;a<10;a++){hienthi();}gio++;if(gio>23)gio=0;
_0x293:
	CPI  R17,10
	BRSH _0x294
	CALL _hienthi
	SUBI R17,-1
	RJMP _0x293
_0x294:
	INC  R9
	LDI  R30,LOW(23)
	CP   R30,R9
	BRSH _0x295
	CLR  R9
; 0000 05F2   for(c=0;c<17;c++)
_0x295:
	LDI  R19,LOW(0)
_0x297:
	CPI  R19,17
	BRSH _0x298
; 0000 05F3   {
; 0000 05F4   ma[0][4]=so[gio/10][17-c];ma[0][5]=so[gio%10][17-c];
	MOV  R26,R9
	CALL SUBOPT_0x14
	CALL SUBOPT_0x33
	CALL SUBOPT_0x6B
	CALL SUBOPT_0x71
	MOV  R26,R9
	CALL SUBOPT_0x15
	CALL SUBOPT_0x33
	CALL SUBOPT_0x6B
	CALL SUBOPT_0x73
; 0000 05F5   for(b=0;b<3;b++){hienthi();}  // hien thi
	LDI  R16,LOW(0)
_0x29A:
	CPI  R16,3
	BRSH _0x29B
	CALL _hienthi
	SUBI R16,-1
	RJMP _0x29A
_0x29B:
; 0000 05F6   for(a=16;a>1;a--){ma[a-1][4]=ma[a-2][4];ma[a-1][5]=ma[a-2][5];}
	LDI  R17,LOW(16)
_0x29D:
	CPI  R17,2
	BRLO _0x29E
	CALL SUBOPT_0x17
	MOVW R0,R30
	CALL SUBOPT_0x25
	CALL SUBOPT_0x30
	CALL SUBOPT_0x39
	CALL SUBOPT_0x6D
	CALL SUBOPT_0x75
	CALL SUBOPT_0x7D
	SUBI R17,1
	RJMP _0x29D
_0x29E:
; 0000 05F7   }
	SUBI R19,-1
	RJMP _0x297
_0x298:
; 0000 05F8   EIMSK=0x01;  //  cho phep ngat ngoai 0  <at328>
	LDI  R30,LOW(1)
	OUT  0x1D,R30
; 0000 05F9   }
; 0000 05FA   //---code duoi dung de kiem tra nhan nut DOWN va cuon xuong duoi
; 0000 05FB   if(down==0 || nut ==21)
_0x28F:
	CALL SUBOPT_0x7E
	BREQ _0x2A0
	LDS  R26,_nut
	CPI  R26,LOW(0x15)
	BREQ _0x2A0
	RJMP _0x29F
_0x2A0:
; 0000 05FC   {EIMSK=0x00;  // k cho phep ngat ngoai 0  <at328>
	CALL SUBOPT_0x7C
; 0000 05FD   nut=0;for(a=0;a<10;a++){hienthi();}if(gio>0){gio--;}else gio=23;
_0x2A3:
	CPI  R17,10
	BRSH _0x2A4
	CALL _hienthi
	SUBI R17,-1
	RJMP _0x2A3
_0x2A4:
	LDI  R30,LOW(0)
	CP   R30,R9
	BRSH _0x2A5
	DEC  R9
	RJMP _0x2A6
_0x2A5:
	LDI  R30,LOW(23)
	MOV  R9,R30
; 0000 05FE   for(c=0;c<15;c++)
_0x2A6:
	LDI  R19,LOW(0)
_0x2A8:
	CPI  R19,15
	BRSH _0x2A9
; 0000 05FF   {
; 0000 0600   ma[15][4]=so[gio/10][c];ma[15][5]=so[gio%10][c];
	MOV  R26,R9
	CALL SUBOPT_0x14
	CALL SUBOPT_0x6A
	MOVW R26,R30
	CALL SUBOPT_0x19
	ADD  R30,R26
	ADC  R31,R27
	LPM  R0,Z
	__PUTBR0MN _ma,124
	MOV  R26,R9
	CALL SUBOPT_0x15
	CALL SUBOPT_0x6A
	MOVW R26,R30
	CALL SUBOPT_0x19
	CALL SUBOPT_0x7F
; 0000 0601   for(b=0;b<3;b++){hienthi();}  // hien thi
	LDI  R16,LOW(0)
_0x2AB:
	CPI  R16,3
	BRSH _0x2AC
	CALL _hienthi
	SUBI R16,-1
	RJMP _0x2AB
_0x2AC:
; 0000 0602   for(a=0;a<15;a++){ma[a][4]=ma[a+1][4];ma[a][5]=ma[a+1][5];}
	LDI  R17,LOW(0)
_0x2AE:
	CPI  R17,15
	BRSH _0x2AF
	CALL SUBOPT_0x17
	CALL SUBOPT_0x80
	CALL SUBOPT_0x81
	CALL SUBOPT_0x7D
	SUBI R17,-1
	RJMP _0x2AE
_0x2AF:
; 0000 0603   }
	SUBI R19,-1
	RJMP _0x2A8
_0x2A9:
; 0000 0604   EIMSK=0x01;  //cho phep ngat ngoai 0  <at328>
	LDI  R30,LOW(1)
	OUT  0x1D,R30
; 0000 0605   }
; 0000 0606  //---------------------------------------------------//
; 0000 0607  if(ok==0 || nut ==22)
_0x29F:
	CALL SUBOPT_0x82
	BREQ _0x2B1
	LDS  R26,_nut
	CPI  R26,LOW(0x16)
	BREQ _0x2B1
	RJMP _0x2B0
_0x2B1:
; 0000 0608   {
; 0000 0609    EIMSK=0x00;  //  k  cho phep ngat ngoai 0  <at328>
	CALL SUBOPT_0x83
; 0000 060A    nut=0;
; 0000 060B    ghids(2,gio);
	LDI  R30,LOW(2)
	ST   -Y,R30
	ST   -Y,R9
	CALL _ghids
; 0000 060C    while(ok==0){hienthi();}
_0x2B3:
	SBIC 0x6,2
	RJMP _0x2B5
	CALL _hienthi
	RJMP _0x2B3
_0x2B5:
; 0000 060D  //--------------------------quet xuong chu PHUT ---------------------------------------//
; 0000 060E   for(c=0;c<17;c++)
	LDI  R19,LOW(0)
_0x2B7:
	CPI  R19,17
	BRLO PC+3
	JMP _0x2B8
; 0000 060F   {
; 0000 0610   ma[0][0]=chu['P'-65][17-c];
	__POINTWRFN 22,23,_chu,240
	CALL SUBOPT_0x19
	CALL SUBOPT_0x6B
	CALL SUBOPT_0x42
; 0000 0611   ma[0][1]=chu['H'-65][17-c];
	__POINTWRFN 22,23,_chu,112
	CALL SUBOPT_0x19
	CALL SUBOPT_0x6B
	CALL SUBOPT_0x44
; 0000 0612   ma[0][2]=chu[33][17-c];
	__POINTWRFN 22,23,_chu,528
	CALL SUBOPT_0x19
	CALL SUBOPT_0x6B
	CALL SUBOPT_0x6C
; 0000 0613   ma[0][3]=chu['T'-65][17-c];
	CALL SUBOPT_0x72
	CALL SUBOPT_0x6B
	CALL SUBOPT_0x6F
; 0000 0614   ma[0][4]=so[10][17-c];
	CALL SUBOPT_0x79
	CALL SUBOPT_0x6B
	CALL SUBOPT_0x71
; 0000 0615   ma[0][5]=so[phut/10][17-c];
	MOV  R26,R14
	CALL SUBOPT_0x14
	CALL SUBOPT_0x33
	CALL SUBOPT_0x6B
	CALL SUBOPT_0x73
; 0000 0616   ma[0][6]=so[phut%10][17-c];
	MOV  R26,R14
	CALL SUBOPT_0x15
	CALL SUBOPT_0x33
	CALL SUBOPT_0x6B
	CALL SUBOPT_0x74
; 0000 0617   for(b=0;b<3;b++){hienthi();}  // hien thi
_0x2BA:
	CPI  R16,3
	BRSH _0x2BB
	CALL _hienthi
	SUBI R16,-1
	RJMP _0x2BA
_0x2BB:
; 0000 0618        for(a=16;a>1;a--)
	LDI  R17,LOW(16)
_0x2BD:
	CPI  R17,2
	BRLO _0x2BE
; 0000 0619          {
; 0000 061A            ma[a-1][0]=ma[a-2][0];
	CALL SUBOPT_0x17
	CALL SUBOPT_0x3D
	CALL SUBOPT_0x3E
	CALL SUBOPT_0x3F
; 0000 061B            ma[a-1][1]=ma[a-2][1];
	MOVW R0,R30
	CALL SUBOPT_0x20
	CALL SUBOPT_0x30
	CALL SUBOPT_0x40
; 0000 061C            ma[a-1][2]=ma[a-2][2];
	CALL SUBOPT_0x6D
	CALL SUBOPT_0x6E
	CALL SUBOPT_0x7A
; 0000 061D            ma[a-1][3]=ma[a-2][3];
	MOVW R0,R30
	CALL SUBOPT_0x23
	CALL SUBOPT_0x30
	CALL SUBOPT_0x38
; 0000 061E            ma[a-1][4]=ma[a-2][4];
	MOVW R0,R30
	CALL SUBOPT_0x25
	CALL SUBOPT_0x30
	CALL SUBOPT_0x39
; 0000 061F            ma[a-1][5]=ma[a-2][5];
	CALL SUBOPT_0x6D
	CALL SUBOPT_0x75
	CALL SUBOPT_0x76
; 0000 0620            ma[a-1][6]=ma[a-2][6];
	MOVW R0,R30
	CALL SUBOPT_0x27
	CALL SUBOPT_0x30
	CALL SUBOPT_0x77
; 0000 0621          }
	SUBI R17,1
	RJMP _0x2BD
_0x2BE:
; 0000 0622   }
	SUBI R19,-1
	RJMP _0x2B7
_0x2B8:
; 0000 0623 
; 0000 0624   ma[0][2]=chu[33][0];
	__POINTW1FN _chu,528
	CALL SUBOPT_0x84
; 0000 0625   EIMSK=0x01;  //  cho phep ngat ngoai 0  <at328>
; 0000 0626    //-----------------------cai phut---------------------//
; 0000 0627   //---code duoi dung de kiem tra nhan nut UP va cuon len tren
; 0000 0628   while(1)
_0x2BF:
; 0000 0629   {
; 0000 062A   hienthi();
	CALL SUBOPT_0x7B
; 0000 062B   if(up==0 || nut ==20)
	BREQ _0x2C3
	LDS  R26,_nut
	CPI  R26,LOW(0x14)
	BREQ _0x2C3
	RJMP _0x2C2
_0x2C3:
; 0000 062C   {EIMSK=0x00;  // k cho phep ngat ngoai 0  <at328>
	CALL SUBOPT_0x7C
; 0000 062D   nut=0;for(a=0;a<10;a++){hienthi();}phut++;if(phut>59)phut=0;
_0x2C6:
	CPI  R17,10
	BRSH _0x2C7
	CALL _hienthi
	SUBI R17,-1
	RJMP _0x2C6
_0x2C7:
	INC  R14
	LDI  R30,LOW(59)
	CP   R30,R14
	BRSH _0x2C8
	CLR  R14
; 0000 062E   for(c=0;c<17;c++)
_0x2C8:
	LDI  R19,LOW(0)
_0x2CA:
	CPI  R19,17
	BRSH _0x2CB
; 0000 062F   {
; 0000 0630   ma[0][5]=so[phut/10][17-c];ma[0][6]=so[phut%10][17-c];
	MOV  R26,R14
	CALL SUBOPT_0x14
	CALL SUBOPT_0x33
	CALL SUBOPT_0x6B
	CALL SUBOPT_0x73
	MOV  R26,R14
	CALL SUBOPT_0x15
	CALL SUBOPT_0x33
	CALL SUBOPT_0x6B
	CALL SUBOPT_0x74
; 0000 0631   for(b=0;b<3;b++){hienthi();}  // hien thi
_0x2CD:
	CPI  R16,3
	BRSH _0x2CE
	CALL _hienthi
	SUBI R16,-1
	RJMP _0x2CD
_0x2CE:
; 0000 0632   for(a=16;a>1;a--){ma[a-1][5]=ma[a-2][5];ma[a-1][6]=ma[a-2][6];}
	LDI  R17,LOW(16)
_0x2D0:
	CPI  R17,2
	BRLO _0x2D1
	CALL SUBOPT_0x17
	CALL SUBOPT_0x6D
	CALL SUBOPT_0x75
	CALL SUBOPT_0x76
	MOVW R0,R30
	CALL SUBOPT_0x27
	CALL SUBOPT_0x30
	CALL SUBOPT_0x77
	SUBI R17,1
	RJMP _0x2D0
_0x2D1:
; 0000 0633   }EIMSK=0x01;  // 1 cho phep ngat ngoai 0  <at328>
	SUBI R19,-1
	RJMP _0x2CA
_0x2CB:
	LDI  R30,LOW(1)
	OUT  0x1D,R30
; 0000 0634   }
; 0000 0635   //---code duoi dung de kiem tra nhan nut DOWN va cuon xuong duoi
; 0000 0636   if(down==0||nut==21)
_0x2C2:
	CALL SUBOPT_0x7E
	BREQ _0x2D3
	LDS  R26,_nut
	CPI  R26,LOW(0x15)
	BRNE _0x2D2
_0x2D3:
; 0000 0637   {EIMSK=0x00;  // k cho phep ngat ngoai 0  <at328>
	CALL SUBOPT_0x7C
; 0000 0638   nut=0;for(a=0;a<10;a++){hienthi();}if(phut>0){phut--;}else phut=59;
_0x2D6:
	CPI  R17,10
	BRSH _0x2D7
	CALL _hienthi
	SUBI R17,-1
	RJMP _0x2D6
_0x2D7:
	LDI  R30,LOW(0)
	CP   R30,R14
	BRSH _0x2D8
	DEC  R14
	RJMP _0x2D9
_0x2D8:
	LDI  R30,LOW(59)
	MOV  R14,R30
; 0000 0639   for(c=0;c<15;c++)
_0x2D9:
	LDI  R19,LOW(0)
_0x2DB:
	CPI  R19,15
	BRSH _0x2DC
; 0000 063A   {
; 0000 063B   ma[15][5]=so[phut/10][c];ma[15][6]=so[phut%10][c];
	MOV  R26,R14
	CALL SUBOPT_0x14
	CALL SUBOPT_0x6A
	MOVW R26,R30
	CALL SUBOPT_0x19
	CALL SUBOPT_0x7F
	MOV  R26,R14
	CALL SUBOPT_0x15
	CALL SUBOPT_0x6A
	MOVW R26,R30
	CALL SUBOPT_0x19
	CALL SUBOPT_0x85
; 0000 063C   for(b=0;b<3;b++){hienthi();}  // hien thi
_0x2DE:
	CPI  R16,3
	BRSH _0x2DF
	CALL _hienthi
	SUBI R16,-1
	RJMP _0x2DE
_0x2DF:
; 0000 063D   for(a=0;a<15;a++){ma[a][5]=ma[a+1][5];ma[a][6]=ma[a+1][6];}
	LDI  R17,LOW(0)
_0x2E1:
	CPI  R17,15
	BRSH _0x2E2
	CALL SUBOPT_0x17
	CALL SUBOPT_0x81
	CALL SUBOPT_0x76
	CALL SUBOPT_0x86
	SUBI R17,-1
	RJMP _0x2E1
_0x2E2:
; 0000 063E   }EIMSK=0x01;  //  cho phep ngat ngoai 0  <at328>
	SUBI R19,-1
	RJMP _0x2DB
_0x2DC:
	LDI  R30,LOW(1)
	OUT  0x1D,R30
; 0000 063F   }
; 0000 0640  //---------------------------------------------------//
; 0000 0641   if(ok==0 || nut ==22)
_0x2D2:
	CALL SUBOPT_0x82
	BREQ _0x2E4
	LDS  R26,_nut
	CPI  R26,LOW(0x16)
	BREQ _0x2E4
	RJMP _0x2E3
_0x2E4:
; 0000 0642   {
; 0000 0643    EIMSK=0x00;  //  k  cho phep ngat ngoai 0  <at328>
	CALL SUBOPT_0x83
; 0000 0644    nut=0;
; 0000 0645    ghids(1,phut);
	LDI  R30,LOW(1)
	ST   -Y,R30
	ST   -Y,R14
	CALL _ghids
; 0000 0646    while(ok==0){hienthi();}
_0x2E6:
	SBIC 0x6,2
	RJMP _0x2E8
	CALL _hienthi
	RJMP _0x2E6
_0x2E8:
; 0000 0647  //--------------------------quet xuong chu GIAY ---------------------------------------//
; 0000 0648   for(c=0;c<17;c++)
	LDI  R19,LOW(0)
_0x2EA:
	CPI  R19,17
	BRLO PC+3
	JMP _0x2EB
; 0000 0649   {
; 0000 064A   ma[0][0]=chu['G'-65][17-c];
	CALL SUBOPT_0x78
	CALL SUBOPT_0x6B
	CALL SUBOPT_0x42
; 0000 064B   ma[0][1]=chu['I'-65][17-c];
	CALL SUBOPT_0x70
	CALL SUBOPT_0x6B
	CALL SUBOPT_0x44
; 0000 064C   ma[0][2]=chu[34][17-c];
	__POINTWRFN 22,23,_chu,544
	CALL SUBOPT_0x19
	CALL SUBOPT_0x6B
	CALL SUBOPT_0x6C
; 0000 064D   ma[0][3]=chu['Y'-65][17-c];
	__POINTWRFN 22,23,_chu,384
	CALL SUBOPT_0x19
	CALL SUBOPT_0x6B
	CALL SUBOPT_0x6F
; 0000 064E   ma[0][4]=so[10][17-c];
	CALL SUBOPT_0x79
	CALL SUBOPT_0x6B
	CALL SUBOPT_0x3B
; 0000 064F   ma[0][5]=so[giay/10][17-c];
	CALL SUBOPT_0x33
	CALL SUBOPT_0x6B
	CALL SUBOPT_0x73
; 0000 0650   ma[0][6]=so[giay%10][17-c];
	MOV  R26,R13
	CALL SUBOPT_0x15
	CALL SUBOPT_0x33
	CALL SUBOPT_0x6B
	CALL SUBOPT_0x74
; 0000 0651   for(b=0;b<3;b++){hienthi();}  // hien thi
_0x2ED:
	CPI  R16,3
	BRSH _0x2EE
	CALL _hienthi
	SUBI R16,-1
	RJMP _0x2ED
_0x2EE:
; 0000 0652        for(a=16;a>1;a--)
	LDI  R17,LOW(16)
_0x2F0:
	CPI  R17,2
	BRLO _0x2F1
; 0000 0653          {
; 0000 0654            ma[a-1][0]=ma[a-2][0];
	CALL SUBOPT_0x17
	CALL SUBOPT_0x3D
	CALL SUBOPT_0x3E
	CALL SUBOPT_0x3F
; 0000 0655            ma[a-1][1]=ma[a-2][1];
	MOVW R0,R30
	CALL SUBOPT_0x20
	CALL SUBOPT_0x30
	CALL SUBOPT_0x40
; 0000 0656            ma[a-1][2]=ma[a-2][2];
	CALL SUBOPT_0x6D
	CALL SUBOPT_0x6E
	CALL SUBOPT_0x7A
; 0000 0657            ma[a-1][3]=ma[a-2][3];
	MOVW R0,R30
	CALL SUBOPT_0x23
	CALL SUBOPT_0x30
	CALL SUBOPT_0x38
; 0000 0658            ma[a-1][4]=ma[a-2][4];
	MOVW R0,R30
	CALL SUBOPT_0x25
	CALL SUBOPT_0x30
	CALL SUBOPT_0x39
; 0000 0659            ma[a-1][5]=ma[a-2][5];
	CALL SUBOPT_0x6D
	CALL SUBOPT_0x75
	CALL SUBOPT_0x76
; 0000 065A            ma[a-1][6]=ma[a-2][6];
	MOVW R0,R30
	CALL SUBOPT_0x27
	CALL SUBOPT_0x30
	CALL SUBOPT_0x77
; 0000 065B          }
	SUBI R17,1
	RJMP _0x2F0
_0x2F1:
; 0000 065C   }
	SUBI R19,-1
	RJMP _0x2EA
_0x2EB:
; 0000 065D   ma[0][2]=chu[34][0];
	__POINTW1FN _chu,544
	CALL SUBOPT_0x84
; 0000 065E   EIMSK=0x01;  //  k  cho phep ngat ngoai 0  <at328>
; 0000 065F   while(1)
_0x2F2:
; 0000 0660   {
; 0000 0661   hienthi();
	CALL SUBOPT_0x7B
; 0000 0662   if(up==0 || nut ==20)
	BREQ _0x2F6
	LDS  R26,_nut
	CPI  R26,LOW(0x14)
	BREQ _0x2F6
	RJMP _0x2F5
_0x2F6:
; 0000 0663   {EIMSK=0x00;  // k cho phep ngat ngoai 0  <at328>
	CALL SUBOPT_0x7C
; 0000 0664   nut=0;for(a=0;a<10;a++){hienthi();}giay++;if(giay>59)giay=0;
_0x2F9:
	CPI  R17,10
	BRSH _0x2FA
	CALL _hienthi
	SUBI R17,-1
	RJMP _0x2F9
_0x2FA:
	INC  R13
	LDI  R30,LOW(59)
	CP   R30,R13
	BRSH _0x2FB
	CLR  R13
; 0000 0665   for(c=0;c<17;c++)
_0x2FB:
	LDI  R19,LOW(0)
_0x2FD:
	CPI  R19,17
	BRSH _0x2FE
; 0000 0666   {
; 0000 0667   ma[0][5]=so[giay/10][17-c];ma[0][6]=so[giay%10][17-c];
	MOV  R26,R13
	CALL SUBOPT_0x14
	CALL SUBOPT_0x33
	CALL SUBOPT_0x6B
	CALL SUBOPT_0x73
	MOV  R26,R13
	CALL SUBOPT_0x15
	CALL SUBOPT_0x33
	CALL SUBOPT_0x6B
	CALL SUBOPT_0x74
; 0000 0668   for(b=0;b<3;b++){hienthi();}  // hien thi
_0x300:
	CPI  R16,3
	BRSH _0x301
	CALL _hienthi
	SUBI R16,-1
	RJMP _0x300
_0x301:
; 0000 0669   for(a=16;a>1;a--){ma[a-1][5]=ma[a-2][5];ma[a-1][6]=ma[a-2][6];}
	LDI  R17,LOW(16)
_0x303:
	CPI  R17,2
	BRLO _0x304
	CALL SUBOPT_0x17
	CALL SUBOPT_0x6D
	CALL SUBOPT_0x75
	CALL SUBOPT_0x76
	MOVW R0,R30
	CALL SUBOPT_0x27
	CALL SUBOPT_0x30
	CALL SUBOPT_0x77
	SUBI R17,1
	RJMP _0x303
_0x304:
; 0000 066A   }EIMSK=0x01;  // 1 cho phep ngat ngoai 0  <at328>
	SUBI R19,-1
	RJMP _0x2FD
_0x2FE:
	LDI  R30,LOW(1)
	OUT  0x1D,R30
; 0000 066B   }
; 0000 066C   //---code duoi dung de kiem tra nhan nut DOWN va cuon xuong duoi
; 0000 066D   if(down==0 || nut ==21)
_0x2F5:
	CALL SUBOPT_0x7E
	BREQ _0x306
	LDS  R26,_nut
	CPI  R26,LOW(0x15)
	BRNE _0x305
_0x306:
; 0000 066E   {EIMSK=0x00;  // k cho phep ngat ngoai 0  <at328>
	CALL SUBOPT_0x7C
; 0000 066F   nut=0;for(a=0;a<10;a++){hienthi();}if(giay>0){giay--;}else giay=59;
_0x309:
	CPI  R17,10
	BRSH _0x30A
	CALL _hienthi
	SUBI R17,-1
	RJMP _0x309
_0x30A:
	LDI  R30,LOW(0)
	CP   R30,R13
	BRSH _0x30B
	DEC  R13
	RJMP _0x30C
_0x30B:
	LDI  R30,LOW(59)
	MOV  R13,R30
; 0000 0670   for(c=0;c<15;c++)
_0x30C:
	LDI  R19,LOW(0)
_0x30E:
	CPI  R19,15
	BRSH _0x30F
; 0000 0671   {
; 0000 0672   ma[15][5]=so[giay/10][c];ma[15][6]=so[giay%10][c];
	MOV  R26,R13
	CALL SUBOPT_0x14
	CALL SUBOPT_0x6A
	MOVW R26,R30
	CALL SUBOPT_0x19
	CALL SUBOPT_0x7F
	MOV  R26,R13
	CALL SUBOPT_0x15
	CALL SUBOPT_0x6A
	MOVW R26,R30
	CALL SUBOPT_0x19
	CALL SUBOPT_0x85
; 0000 0673   for(b=0;b<3;b++){hienthi();}  // hien thi
_0x311:
	CPI  R16,3
	BRSH _0x312
	CALL _hienthi
	SUBI R16,-1
	RJMP _0x311
_0x312:
; 0000 0674   for(a=0;a<15;a++){ma[a][5]=ma[a+1][5];ma[a][6]=ma[a+1][6];}
	LDI  R17,LOW(0)
_0x314:
	CPI  R17,15
	BRSH _0x315
	CALL SUBOPT_0x17
	CALL SUBOPT_0x81
	CALL SUBOPT_0x76
	CALL SUBOPT_0x86
	SUBI R17,-1
	RJMP _0x314
_0x315:
; 0000 0675   }EIMSK=0x01;  //  cho phep ngat ngoai 0  <at328>
	SUBI R19,-1
	RJMP _0x30E
_0x30F:
	LDI  R30,LOW(1)
	OUT  0x1D,R30
; 0000 0676   }
; 0000 0677  //---------------------------------------------------//
; 0000 0678   if(ok==0 || nut ==22)
_0x305:
	CALL SUBOPT_0x82
	BREQ _0x317
	LDS  R26,_nut
	CPI  R26,LOW(0x16)
	BREQ _0x317
	RJMP _0x316
_0x317:
; 0000 0679   {
; 0000 067A    EIMSK=0x00;  //  k  cho phep ngat ngoai 0  <at328>
	CALL SUBOPT_0x83
; 0000 067B    nut=0;
; 0000 067C    ghids(0,giay);
	LDI  R30,LOW(0)
	ST   -Y,R30
	ST   -Y,R13
	CALL _ghids
; 0000 067D    while(ok==0){hienthi();}
_0x319:
	SBIC 0x6,2
	RJMP _0x31B
	CALL _hienthi
	RJMP _0x319
_0x31B:
; 0000 067E    //--------------------------quet xuong chu NGAY ---------------------------------------//
; 0000 067F   for(c=0;c<17;c++)
	LDI  R19,LOW(0)
_0x31D:
	CPI  R19,17
	BRLO PC+3
	JMP _0x31E
; 0000 0680   {
; 0000 0681   ma[0][0]=chu['N'-65][17-c];
	CALL SUBOPT_0x87
	CALL SUBOPT_0x6B
	CALL SUBOPT_0x42
; 0000 0682   ma[0][1]=chu['G'-65][17-c];
	CALL SUBOPT_0x78
	CALL SUBOPT_0x6B
	CALL SUBOPT_0x44
; 0000 0683   ma[0][2]=chu[35][17-c];
	__POINTWRFN 22,23,_chu,560
	CALL SUBOPT_0x19
	CALL SUBOPT_0x6B
	CALL SUBOPT_0x6C
; 0000 0684   ma[0][3]=chu['Y'-65][17-c];
	__POINTWRFN 22,23,_chu,384
	CALL SUBOPT_0x19
	CALL SUBOPT_0x6B
	CALL SUBOPT_0x6F
; 0000 0685   ma[0][4]=so[10][17-c];
	CALL SUBOPT_0x79
	CALL SUBOPT_0x6B
	CALL SUBOPT_0x71
; 0000 0686   ma[0][5]=so[ngay/10][17-c];
	CALL SUBOPT_0x65
	CALL SUBOPT_0x33
	CALL SUBOPT_0x6B
	CALL SUBOPT_0x73
; 0000 0687   ma[0][6]=so[ngay%10][17-c];
	CALL SUBOPT_0x66
	CALL SUBOPT_0x33
	CALL SUBOPT_0x6B
	CALL SUBOPT_0x74
; 0000 0688   for(b=0;b<3;b++){hienthi();}  // hien thi
_0x320:
	CPI  R16,3
	BRSH _0x321
	CALL _hienthi
	SUBI R16,-1
	RJMP _0x320
_0x321:
; 0000 0689        for(a=16;a>1;a--)
	LDI  R17,LOW(16)
_0x323:
	CPI  R17,2
	BRLO _0x324
; 0000 068A          {
; 0000 068B            ma[a-1][0]=ma[a-2][0];
	CALL SUBOPT_0x17
	CALL SUBOPT_0x3D
	CALL SUBOPT_0x3E
	CALL SUBOPT_0x3F
; 0000 068C            ma[a-1][1]=ma[a-2][1];
	MOVW R0,R30
	CALL SUBOPT_0x20
	CALL SUBOPT_0x30
	CALL SUBOPT_0x40
; 0000 068D            ma[a-1][2]=ma[a-2][2];
	CALL SUBOPT_0x6D
	CALL SUBOPT_0x6E
	CALL SUBOPT_0x7A
; 0000 068E            ma[a-1][3]=ma[a-2][3];
	MOVW R0,R30
	CALL SUBOPT_0x23
	CALL SUBOPT_0x30
	CALL SUBOPT_0x38
; 0000 068F            ma[a-1][4]=ma[a-2][4];
	MOVW R0,R30
	CALL SUBOPT_0x25
	CALL SUBOPT_0x30
	CALL SUBOPT_0x39
; 0000 0690            ma[a-1][5]=ma[a-2][5];
	CALL SUBOPT_0x6D
	CALL SUBOPT_0x75
	CALL SUBOPT_0x76
; 0000 0691            ma[a-1][6]=ma[a-2][6];
	MOVW R0,R30
	CALL SUBOPT_0x27
	CALL SUBOPT_0x30
	CALL SUBOPT_0x77
; 0000 0692          }
	SUBI R17,1
	RJMP _0x323
_0x324:
; 0000 0693   }
	SUBI R19,-1
	RJMP _0x31D
_0x31E:
; 0000 0694   ma[0][2]=chu[35][0];
	__POINTW1FN _chu,560
	CALL SUBOPT_0x84
; 0000 0695   EIMSK=0x01;  //    cho phep ngat ngoai 0  <at328>
; 0000 0696    while(1)
_0x325:
; 0000 0697   {
; 0000 0698   hienthi();
	CALL SUBOPT_0x7B
; 0000 0699   if(up==0 || nut ==20 )
	BREQ _0x329
	LDS  R26,_nut
	CPI  R26,LOW(0x14)
	BREQ _0x329
	RJMP _0x328
_0x329:
; 0000 069A   {EIMSK=0x00;  // k cho phep ngat ngoai 0  <at328>
	CALL SUBOPT_0x7C
; 0000 069B   nut=0;for(a=0;a<10;a++){hienthi();}ngay++;if(ngay>31)ngay=0;
_0x32C:
	CPI  R17,10
	BRSH _0x32D
	CALL _hienthi
	SUBI R17,-1
	RJMP _0x32C
_0x32D:
	LDS  R30,_ngay
	SUBI R30,-LOW(1)
	STS  _ngay,R30
	LDS  R26,_ngay
	CPI  R26,LOW(0x20)
	BRLO _0x32E
	LDI  R30,LOW(0)
	STS  _ngay,R30
; 0000 069C   for(c=0;c<17;c++)
_0x32E:
	LDI  R19,LOW(0)
_0x330:
	CPI  R19,17
	BRSH _0x331
; 0000 069D   {
; 0000 069E   ma[0][5]=so[ngay/10][17-c];ma[0][6]=so[ngay%10][17-c];
	CALL SUBOPT_0x65
	CALL SUBOPT_0x33
	CALL SUBOPT_0x6B
	CALL SUBOPT_0x73
	CALL SUBOPT_0x66
	CALL SUBOPT_0x33
	CALL SUBOPT_0x6B
	CALL SUBOPT_0x74
; 0000 069F   for(b=0;b<3;b++){hienthi();}  // hien thi
_0x333:
	CPI  R16,3
	BRSH _0x334
	CALL _hienthi
	SUBI R16,-1
	RJMP _0x333
_0x334:
; 0000 06A0   for(a=16;a>1;a--){ma[a-1][5]=ma[a-2][5];ma[a-1][6]=ma[a-2][6];}
	LDI  R17,LOW(16)
_0x336:
	CPI  R17,2
	BRLO _0x337
	CALL SUBOPT_0x17
	CALL SUBOPT_0x6D
	CALL SUBOPT_0x75
	CALL SUBOPT_0x76
	MOVW R0,R30
	CALL SUBOPT_0x27
	CALL SUBOPT_0x30
	CALL SUBOPT_0x77
	SUBI R17,1
	RJMP _0x336
_0x337:
; 0000 06A1   }EIMSK=0x01;  // k cho phep ngat ngoai 0  <at328>
	SUBI R19,-1
	RJMP _0x330
_0x331:
	LDI  R30,LOW(1)
	OUT  0x1D,R30
; 0000 06A2   }
; 0000 06A3   //---code duoi dung de kiem tra nhan nut DOWN va cuon xuong duoi
; 0000 06A4   if(down==0 || nut ==21)
_0x328:
	CALL SUBOPT_0x7E
	BREQ _0x339
	LDS  R26,_nut
	CPI  R26,LOW(0x15)
	BREQ _0x339
	RJMP _0x338
_0x339:
; 0000 06A5   {EIMSK=0x00;  // k cho phep ngat ngoai 0  <at328>
	CALL SUBOPT_0x7C
; 0000 06A6   nut=0;for(a=0;a<10;a++){hienthi();}if(ngay>0){ngay--;}else ngay=31;
_0x33C:
	CPI  R17,10
	BRSH _0x33D
	CALL _hienthi
	SUBI R17,-1
	RJMP _0x33C
_0x33D:
	LDS  R26,_ngay
	CPI  R26,LOW(0x1)
	BRLO _0x33E
	LDS  R30,_ngay
	SUBI R30,LOW(1)
	RJMP _0x66D
_0x33E:
	LDI  R30,LOW(31)
_0x66D:
	STS  _ngay,R30
; 0000 06A7   for(c=0;c<15;c++)
	LDI  R19,LOW(0)
_0x341:
	CPI  R19,15
	BRSH _0x342
; 0000 06A8   {
; 0000 06A9   ma[15][5]=so[ngay/10][c];ma[15][6]=so[ngay%10][c];
	CALL SUBOPT_0x65
	CALL SUBOPT_0x6A
	MOVW R26,R30
	CALL SUBOPT_0x19
	CALL SUBOPT_0x7F
	CALL SUBOPT_0x66
	CALL SUBOPT_0x6A
	MOVW R26,R30
	CALL SUBOPT_0x19
	CALL SUBOPT_0x85
; 0000 06AA   for(b=0;b<3;b++){hienthi();}  // hien thi
_0x344:
	CPI  R16,3
	BRSH _0x345
	CALL _hienthi
	SUBI R16,-1
	RJMP _0x344
_0x345:
; 0000 06AB   for(a=0;a<15;a++){ma[a][5]=ma[a+1][5];ma[a][6]=ma[a+1][6];}
	LDI  R17,LOW(0)
_0x347:
	CPI  R17,15
	BRSH _0x348
	CALL SUBOPT_0x17
	CALL SUBOPT_0x81
	CALL SUBOPT_0x76
	CALL SUBOPT_0x86
	SUBI R17,-1
	RJMP _0x347
_0x348:
; 0000 06AC   }EIMSK=0x01;  // k cho phep ngat ngoai 0  <at328>
	SUBI R19,-1
	RJMP _0x341
_0x342:
	LDI  R30,LOW(1)
	OUT  0x1D,R30
; 0000 06AD   }
; 0000 06AE  //---------------------------------------------------//
; 0000 06AF   if(ok==0 || nut ==22)
_0x338:
	CALL SUBOPT_0x82
	BREQ _0x34A
	LDS  R26,_nut
	CPI  R26,LOW(0x16)
	BREQ _0x34A
	RJMP _0x349
_0x34A:
; 0000 06B0   {
; 0000 06B1    EIMSK=0x00;  //  k  cho phep ngat ngoai 0  <at328>
	CALL SUBOPT_0x83
; 0000 06B2    nut=0;
; 0000 06B3    ghids(4,ngay);
	LDI  R30,LOW(4)
	ST   -Y,R30
	LDS  R30,_ngay
	ST   -Y,R30
	CALL _ghids
; 0000 06B4    while(ok==0){hienthi();}
_0x34C:
	SBIC 0x6,2
	RJMP _0x34E
	CALL _hienthi
	RJMP _0x34C
_0x34E:
; 0000 06B5      //--------------------------quet xuong chu THANG ---------------------------------------//
; 0000 06B6   for(c=0;c<17;c++)
	LDI  R19,LOW(0)
_0x350:
	CPI  R19,17
	BRLO PC+3
	JMP _0x351
; 0000 06B7   {
; 0000 06B8   ma[0][0]=chu['T'-65][17-c];
	CALL SUBOPT_0x72
	CALL SUBOPT_0x6B
	CALL SUBOPT_0x42
; 0000 06B9   ma[0][1]=chu['H'-65][17-c];
	__POINTWRFN 22,23,_chu,112
	CALL SUBOPT_0x19
	CALL SUBOPT_0x6B
	CALL SUBOPT_0x44
; 0000 06BA   ma[0][2]=chu[36][17-c];
	__POINTWRFN 22,23,_chu,576
	CALL SUBOPT_0x19
	CALL SUBOPT_0x6B
	CALL SUBOPT_0x6C
; 0000 06BB   ma[0][3]=chu['N'-65][17-c];
	CALL SUBOPT_0x87
	CALL SUBOPT_0x6B
	CALL SUBOPT_0x6F
; 0000 06BC   ma[0][4]=chu['G'-65][17-c];
	CALL SUBOPT_0x78
	CALL SUBOPT_0x6B
	CALL SUBOPT_0x71
; 0000 06BD   ma[0][5]=so[10][17-c];
	CALL SUBOPT_0x79
	CALL SUBOPT_0x6B
	CALL SUBOPT_0x73
; 0000 06BE   ma[0][6]=so[thang/10][17-c];
	CALL SUBOPT_0x67
	CALL SUBOPT_0x33
	CALL SUBOPT_0x6B
	CALL SUBOPT_0x88
; 0000 06BF   ma[0][7]=so[thang%10][17-c];
	CALL SUBOPT_0x33
	CALL SUBOPT_0x6B
	CALL SUBOPT_0x36
; 0000 06C0   for(b=0;b<3;b++){hienthi();}  // hien thi
_0x353:
	CPI  R16,3
	BRSH _0x354
	CALL _hienthi
	SUBI R16,-1
	RJMP _0x353
_0x354:
; 0000 06C1        for(a=16;a>1;a--)
	LDI  R17,LOW(16)
_0x356:
	CPI  R17,2
	BRLO _0x357
; 0000 06C2          {
; 0000 06C3            ma[a-1][0]=ma[a-2][0];
	CALL SUBOPT_0x17
	CALL SUBOPT_0x3D
	CALL SUBOPT_0x3E
	CALL SUBOPT_0x3F
; 0000 06C4            ma[a-1][1]=ma[a-2][1];
	MOVW R0,R30
	CALL SUBOPT_0x20
	CALL SUBOPT_0x30
	CALL SUBOPT_0x40
; 0000 06C5            ma[a-1][2]=ma[a-2][2];
	CALL SUBOPT_0x6D
	CALL SUBOPT_0x6E
	CALL SUBOPT_0x7A
; 0000 06C6            ma[a-1][3]=ma[a-2][3];
	MOVW R0,R30
	CALL SUBOPT_0x23
	CALL SUBOPT_0x30
	CALL SUBOPT_0x38
; 0000 06C7            ma[a-1][4]=ma[a-2][4];
	MOVW R0,R30
	CALL SUBOPT_0x25
	CALL SUBOPT_0x30
	CALL SUBOPT_0x39
; 0000 06C8            ma[a-1][5]=ma[a-2][5];
	CALL SUBOPT_0x6D
	CALL SUBOPT_0x75
	CALL SUBOPT_0x76
; 0000 06C9            ma[a-1][6]=ma[a-2][6];
	MOVW R0,R30
	CALL SUBOPT_0x27
	CALL SUBOPT_0x30
	CALL SUBOPT_0x31
; 0000 06CA            ma[a-1][7]=ma[a-2][7];
	MOVW R0,R30
	CALL SUBOPT_0x29
	CALL SUBOPT_0x30
	CALL SUBOPT_0x32
; 0000 06CB          }
	SUBI R17,1
	RJMP _0x356
_0x357:
; 0000 06CC   }
	SUBI R19,-1
	RJMP _0x350
_0x351:
; 0000 06CD   ma[0][2]=chu[36][0];
	__POINTW1FN _chu,576
	CALL SUBOPT_0x84
; 0000 06CE   EIMSK=0x01;  //  cho phep ngat ngoai 0  <at328>
; 0000 06CF    while(1)
_0x358:
; 0000 06D0   {
; 0000 06D1   hienthi();
	CALL SUBOPT_0x7B
; 0000 06D2   if(up==0 || nut ==20)
	BREQ _0x35C
	LDS  R26,_nut
	CPI  R26,LOW(0x14)
	BREQ _0x35C
	RJMP _0x35B
_0x35C:
; 0000 06D3   {
; 0000 06D4   EIMSK=0x00;  // k cho phep ngat ngoai 0  <at328>
	CALL SUBOPT_0x7C
; 0000 06D5   nut=0;for(a=0;a<10;a++){hienthi();}thang++;if(thang>12)thang=0;
_0x35F:
	CPI  R17,10
	BRSH _0x360
	CALL _hienthi
	SUBI R17,-1
	RJMP _0x35F
_0x360:
	LDS  R30,_thang
	SUBI R30,-LOW(1)
	STS  _thang,R30
	LDS  R26,_thang
	CPI  R26,LOW(0xD)
	BRLO _0x361
	LDI  R30,LOW(0)
	STS  _thang,R30
; 0000 06D6   for(c=0;c<17;c++)
_0x361:
	LDI  R19,LOW(0)
_0x363:
	CPI  R19,17
	BRSH _0x364
; 0000 06D7   {
; 0000 06D8   ma[0][6]=so[thang/10][17-c];ma[0][7]=so[thang%10][17-c];
	CALL SUBOPT_0x67
	CALL SUBOPT_0x33
	CALL SUBOPT_0x6B
	CALL SUBOPT_0x88
	CALL SUBOPT_0x33
	CALL SUBOPT_0x6B
	CALL SUBOPT_0x36
; 0000 06D9   for(b=0;b<3;b++){hienthi();}  // hien thi
_0x366:
	CPI  R16,3
	BRSH _0x367
	CALL _hienthi
	SUBI R16,-1
	RJMP _0x366
_0x367:
; 0000 06DA   for(a=16;a>1;a--){ma[a-1][6]=ma[a-2][6];ma[a-1][7]=ma[a-2][7];}
	LDI  R17,LOW(16)
_0x369:
	CPI  R17,2
	BRLO _0x36A
	CALL SUBOPT_0x17
	MOVW R0,R30
	CALL SUBOPT_0x27
	CALL SUBOPT_0x30
	CALL SUBOPT_0x31
	MOVW R0,R30
	CALL SUBOPT_0x29
	CALL SUBOPT_0x30
	CALL SUBOPT_0x32
	SUBI R17,1
	RJMP _0x369
_0x36A:
; 0000 06DB   }EIMSK=0x01;  // k cho phep ngat ngoai 0  <at328>
	SUBI R19,-1
	RJMP _0x363
_0x364:
	LDI  R30,LOW(1)
	OUT  0x1D,R30
; 0000 06DC   }
; 0000 06DD   //---code duoi dung de kiem tra nhan nut DOWN va cuon xuong duoi
; 0000 06DE   if(down==0 || nut ==21)
_0x35B:
	CALL SUBOPT_0x7E
	BREQ _0x36C
	LDS  R26,_nut
	CPI  R26,LOW(0x15)
	BRNE _0x36B
_0x36C:
; 0000 06DF   {
; 0000 06E0   EIMSK=0x00;  // k cho phep ngat ngoai 0  <at328>
	CALL SUBOPT_0x7C
; 0000 06E1   nut=0;for(a=0;a<10;a++){hienthi();}if(thang>0){thang--;}else thang=12;
_0x36F:
	CPI  R17,10
	BRSH _0x370
	CALL _hienthi
	SUBI R17,-1
	RJMP _0x36F
_0x370:
	LDS  R26,_thang
	CPI  R26,LOW(0x1)
	BRLO _0x371
	LDS  R30,_thang
	SUBI R30,LOW(1)
	RJMP _0x66E
_0x371:
	LDI  R30,LOW(12)
_0x66E:
	STS  _thang,R30
; 0000 06E2   for(c=0;c<15;c++)
	LDI  R19,LOW(0)
_0x374:
	CPI  R19,15
	BRSH _0x375
; 0000 06E3   {
; 0000 06E4   ma[15][6]=so[thang/10][c];ma[15][7]=so[thang%10][c];
	CALL SUBOPT_0x67
	CALL SUBOPT_0x6A
	MOVW R26,R30
	CALL SUBOPT_0x19
	CALL SUBOPT_0x89
	CALL SUBOPT_0x68
	CALL SUBOPT_0x6A
	MOVW R26,R30
	CALL SUBOPT_0x19
	CALL SUBOPT_0x8A
; 0000 06E5   for(b=0;b<3;b++){hienthi();}  // hien thi
_0x377:
	CPI  R16,3
	BRSH _0x378
	CALL _hienthi
	SUBI R16,-1
	RJMP _0x377
_0x378:
; 0000 06E6   for(a=0;a<15;a++){ma[a][6]=ma[a+1][6];ma[a][7]=ma[a+1][7];}
	LDI  R17,LOW(0)
_0x37A:
	CPI  R17,15
	BRSH _0x37B
	CALL SUBOPT_0x17
	CALL SUBOPT_0x8B
	CALL SUBOPT_0x8C
	SUBI R17,-1
	RJMP _0x37A
_0x37B:
; 0000 06E7   }EIMSK=0x01;  //  cho phep ngat ngoai 0  <at328>
	SUBI R19,-1
	RJMP _0x374
_0x375:
	LDI  R30,LOW(1)
	OUT  0x1D,R30
; 0000 06E8   }
; 0000 06E9  //---------------------------------------------------//
; 0000 06EA   if(ok==0 || nut==22)
_0x36B:
	CALL SUBOPT_0x82
	BREQ _0x37D
	LDS  R26,_nut
	CPI  R26,LOW(0x16)
	BREQ _0x37D
	RJMP _0x37C
_0x37D:
; 0000 06EB   {
; 0000 06EC    EIMSK=0x00;  //  k  cho phep ngat ngoai 0  <at328>
	CALL SUBOPT_0x83
; 0000 06ED    nut=0;
; 0000 06EE    ghids(5,thang);
	LDI  R30,LOW(5)
	ST   -Y,R30
	LDS  R30,_thang
	ST   -Y,R30
	CALL _ghids
; 0000 06EF    while(ok==0){hienthi();}
_0x37F:
	SBIC 0x6,2
	RJMP _0x381
	CALL _hienthi
	RJMP _0x37F
_0x381:
; 0000 06F0      //--------------------------quet xuong chu NAM ---------------------------------------//
; 0000 06F1   for(c=0;c<17;c++)
	LDI  R19,LOW(0)
_0x383:
	CPI  R19,17
	BRLO PC+3
	JMP _0x384
; 0000 06F2   {
; 0000 06F3   ma[0][0]=chu['N'-65][17-c];
	CALL SUBOPT_0x87
	CALL SUBOPT_0x6B
	CALL SUBOPT_0x42
; 0000 06F4   ma[0][1]=chu[37][17-c];
	__POINTWRFN 22,23,_chu,592
	CALL SUBOPT_0x19
	CALL SUBOPT_0x6B
	CALL SUBOPT_0x44
; 0000 06F5   ma[0][2]=chu['M'-65][17-c];
	__POINTWRFN 22,23,_chu,192
	CALL SUBOPT_0x19
	CALL SUBOPT_0x6B
	CALL SUBOPT_0x6C
; 0000 06F6   ma[0][3]=so[10][17-c];
	CALL SUBOPT_0x79
	CALL SUBOPT_0x6B
	CALL SUBOPT_0x6F
; 0000 06F7   ma[0][4]=so[2][17-c];
	__POINTWRFN 22,23,_so,32
	CALL SUBOPT_0x19
	CALL SUBOPT_0x6B
	CALL SUBOPT_0x71
; 0000 06F8   ma[0][5]=so[0][17-c];
	CALL SUBOPT_0x19
	CALL SUBOPT_0x6B
	SUBI R30,LOW(-_so*2)
	SBCI R31,HIGH(-_so*2)
	LPM  R0,Z
	__PUTBR0MN _ma,5
; 0000 06F9   ma[0][6]=so[nam/10][17-c];
	CALL SUBOPT_0x41
	CALL SUBOPT_0x33
	CALL SUBOPT_0x6B
	CALL SUBOPT_0x8D
; 0000 06FA   ma[0][7]=so[nam%10][17-c];
	CALL SUBOPT_0x33
	CALL SUBOPT_0x6B
	CALL SUBOPT_0x36
; 0000 06FB   for(b=0;b<3;b++){hienthi();}  // hien thi
_0x386:
	CPI  R16,3
	BRSH _0x387
	CALL _hienthi
	SUBI R16,-1
	RJMP _0x386
_0x387:
; 0000 06FC        for(a=16;a>1;a--)
	LDI  R17,LOW(16)
_0x389:
	CPI  R17,2
	BRLO _0x38A
; 0000 06FD          {
; 0000 06FE            ma[a-1][0]=ma[a-2][0];
	CALL SUBOPT_0x17
	CALL SUBOPT_0x3D
	CALL SUBOPT_0x3E
	CALL SUBOPT_0x3F
; 0000 06FF            ma[a-1][1]=ma[a-2][1];
	MOVW R0,R30
	CALL SUBOPT_0x20
	CALL SUBOPT_0x30
	CALL SUBOPT_0x40
; 0000 0700            ma[a-1][2]=ma[a-2][2];
	CALL SUBOPT_0x6D
	CALL SUBOPT_0x6E
	CALL SUBOPT_0x7A
; 0000 0701            ma[a-1][3]=ma[a-2][3];
	MOVW R0,R30
	CALL SUBOPT_0x23
	CALL SUBOPT_0x30
	CALL SUBOPT_0x38
; 0000 0702            ma[a-1][4]=ma[a-2][4];
	MOVW R0,R30
	CALL SUBOPT_0x25
	CALL SUBOPT_0x30
	CALL SUBOPT_0x39
; 0000 0703            ma[a-1][5]=ma[a-2][5];
	CALL SUBOPT_0x6D
	CALL SUBOPT_0x75
	CALL SUBOPT_0x76
; 0000 0704            ma[a-1][6]=ma[a-2][6];
	MOVW R0,R30
	CALL SUBOPT_0x27
	CALL SUBOPT_0x30
	CALL SUBOPT_0x31
; 0000 0705            ma[a-1][7]=ma[a-2][7];
	MOVW R0,R30
	CALL SUBOPT_0x29
	CALL SUBOPT_0x30
	CALL SUBOPT_0x32
; 0000 0706          }
	SUBI R17,1
	RJMP _0x389
_0x38A:
; 0000 0707   }
	SUBI R19,-1
	RJMP _0x383
_0x384:
; 0000 0708   ma[0][1]=chu[37][0];
	__POINTW1FN _chu,592
	LPM  R0,Z
	__PUTBR0MN _ma,1
; 0000 0709   EIMSK=0x01;  //  k  cho phep ngat ngoai 0  <at328>
	LDI  R30,LOW(1)
	OUT  0x1D,R30
; 0000 070A    while(1)
_0x38B:
; 0000 070B   {
; 0000 070C   hienthi();
	CALL SUBOPT_0x7B
; 0000 070D   if(up==0 || nut ==20)
	BREQ _0x38F
	LDS  R26,_nut
	CPI  R26,LOW(0x14)
	BREQ _0x38F
	RJMP _0x38E
_0x38F:
; 0000 070E   {EIMSK=0x00;  // k cho phep ngat ngoai 0  <at328>
	CALL SUBOPT_0x7C
; 0000 070F   nut=0;for(a=0;a<10;a++){hienthi();}nam++;if(nam>99)nam=17;
_0x392:
	CPI  R17,10
	BRSH _0x393
	CALL _hienthi
	SUBI R17,-1
	RJMP _0x392
_0x393:
	LDS  R30,_nam
	SUBI R30,-LOW(1)
	STS  _nam,R30
	LDS  R26,_nam
	CPI  R26,LOW(0x64)
	BRLO _0x394
	LDI  R30,LOW(17)
	STS  _nam,R30
; 0000 0710   for(c=0;c<17;c++)
_0x394:
	LDI  R19,LOW(0)
_0x396:
	CPI  R19,17
	BRSH _0x397
; 0000 0711   {
; 0000 0712   ma[0][6]=so[nam/10][17-c];ma[0][7]=so[nam%10][17-c];
	CALL SUBOPT_0x41
	CALL SUBOPT_0x33
	CALL SUBOPT_0x6B
	CALL SUBOPT_0x8D
	CALL SUBOPT_0x33
	CALL SUBOPT_0x6B
	CALL SUBOPT_0x36
; 0000 0713   for(b=0;b<3;b++){hienthi();}  // hien thi
_0x399:
	CPI  R16,3
	BRSH _0x39A
	CALL _hienthi
	SUBI R16,-1
	RJMP _0x399
_0x39A:
; 0000 0714   for(a=16;a>1;a--){ma[a-1][6]=ma[a-2][6];ma[a-1][7]=ma[a-2][7];}
	LDI  R17,LOW(16)
_0x39C:
	CPI  R17,2
	BRLO _0x39D
	CALL SUBOPT_0x17
	MOVW R0,R30
	CALL SUBOPT_0x27
	CALL SUBOPT_0x30
	CALL SUBOPT_0x31
	MOVW R0,R30
	CALL SUBOPT_0x29
	CALL SUBOPT_0x30
	CALL SUBOPT_0x32
	SUBI R17,1
	RJMP _0x39C
_0x39D:
; 0000 0715   }EIMSK=0x01;  // k cho phep ngat ngoai 0  <at328>
	SUBI R19,-1
	RJMP _0x396
_0x397:
	LDI  R30,LOW(1)
	OUT  0x1D,R30
; 0000 0716   }
; 0000 0717   //---code duoi dung de kiem tra nhan nut DOWN va cuon len
; 0000 0718   if(down==0 || nut==21)
_0x38E:
	CALL SUBOPT_0x7E
	BREQ _0x39F
	LDS  R26,_nut
	CPI  R26,LOW(0x15)
	BREQ _0x39F
	RJMP _0x39E
_0x39F:
; 0000 0719   {EIMSK=0x00;  // k cho phep ngat ngoai 0  <at328>
	CALL SUBOPT_0x7C
; 0000 071A   nut=0;for(a=0;a<10;a++){hienthi();}if(nam>17){nam--;}else if(nam<=17) nam=99;
_0x3A2:
	CPI  R17,10
	BRSH _0x3A3
	CALL _hienthi
	SUBI R17,-1
	RJMP _0x3A2
_0x3A3:
	LDS  R26,_nam
	CPI  R26,LOW(0x12)
	BRLO _0x3A4
	LDS  R30,_nam
	SUBI R30,LOW(1)
	RJMP _0x66F
_0x3A4:
	LDS  R26,_nam
	CPI  R26,LOW(0x12)
	BRSH _0x3A6
	LDI  R30,LOW(99)
_0x66F:
	STS  _nam,R30
; 0000 071B   for(c=0;c<15;c++)
_0x3A6:
	LDI  R19,LOW(0)
_0x3A8:
	CPI  R19,15
	BRSH _0x3A9
; 0000 071C   {
; 0000 071D   ma[15][6]=so[nam/10][c];ma[15][7]=so[nam%10][c];
	CALL SUBOPT_0x41
	CALL SUBOPT_0x6A
	MOVW R26,R30
	CALL SUBOPT_0x19
	CALL SUBOPT_0x89
	CALL SUBOPT_0x43
	CALL SUBOPT_0x6A
	MOVW R26,R30
	CALL SUBOPT_0x19
	CALL SUBOPT_0x8A
; 0000 071E   for(b=0;b<3;b++){hienthi();}  // hien thi
_0x3AB:
	CPI  R16,3
	BRSH _0x3AC
	CALL _hienthi
	SUBI R16,-1
	RJMP _0x3AB
_0x3AC:
; 0000 071F   for(a=0;a<15;a++){ma[a][6]=ma[a+1][6];ma[a][7]=ma[a+1][7];}
	LDI  R17,LOW(0)
_0x3AE:
	CPI  R17,15
	BRSH _0x3AF
	CALL SUBOPT_0x17
	CALL SUBOPT_0x8B
	CALL SUBOPT_0x8C
	SUBI R17,-1
	RJMP _0x3AE
_0x3AF:
; 0000 0720   }EIMSK=0x01;  // k cho phep ngat ngoai 0  <at328>
	SUBI R19,-1
	RJMP _0x3A8
_0x3A9:
	LDI  R30,LOW(1)
	OUT  0x1D,R30
; 0000 0721   }
; 0000 0722  //---------------------------------------------------//
; 0000 0723  if(ok==0 || nut==22)
_0x39E:
	CALL SUBOPT_0x82
	BREQ _0x3B1
	LDS  R26,_nut
	CPI  R26,LOW(0x16)
	BREQ _0x3B1
	RJMP _0x3B0
_0x3B1:
; 0000 0724  {
; 0000 0725    EIMSK=0x00;  // k cho phep ngat ngoai 0  <at328>
	CALL SUBOPT_0x83
; 0000 0726    nut=0;
; 0000 0727    ghids(6,nam);
	LDI  R30,LOW(6)
	ST   -Y,R30
	LDS  R30,_nam
	ST   -Y,R30
	CALL _ghids
; 0000 0728    while(ok==0){hienthi();}
_0x3B3:
	SBIC 0x6,2
	RJMP _0x3B5
	CALL _hienthi
	RJMP _0x3B3
_0x3B5:
; 0000 0729 
; 0000 072A    if(thang>=3)thu = (ngay+2*thang+(3*(thang+1)) / 5 + (2000+nam) + ((2000+nam) / 4)) % 7;
	LDS  R26,_thang
	CPI  R26,LOW(0x3)
	BRLO _0x3B6
	LDS  R22,_ngay
	CLR  R23
	LDS  R30,_thang
	LDI  R26,LOW(2)
	MUL  R30,R26
	MOVW R30,R0
	__ADDWRR 22,23,30,31
	CALL SUBOPT_0x8E
	ADIW R30,1
	CALL SUBOPT_0x8F
	CALL SUBOPT_0x90
	RJMP _0x670
; 0000 072B    else thu = (ngay+2*(thang+12)+(3*((thang+12)+1)) / 5 + ((2000+nam)-1) + (((2000+nam)-1) / 4)) % 7;
_0x3B6:
	LDS  R26,_ngay
	CLR  R27
	CALL SUBOPT_0x8E
	ADIW R30,12
	CALL SUBOPT_0x53
	MOVW R22,R30
	CALL SUBOPT_0x8E
	ADIW R30,13
	CALL SUBOPT_0x8F
	SBIW R30,1
	CALL SUBOPT_0x90
	SBIW R30,1
_0x670:
	MOVW R26,R30
	LDI  R30,LOW(4)
	LDI  R31,HIGH(4)
	CALL __DIVW21
	MOVW R26,R22
	ADD  R26,R30
	ADC  R27,R31
	LDI  R30,LOW(7)
	LDI  R31,HIGH(7)
	CALL __MODW21
	STS  _thu,R30
; 0000 072C    thu++;
	SUBI R30,-LOW(1)
	STS  _thu,R30
; 0000 072D    ghids(3,thu);
	LDI  R30,LOW(3)
	ST   -Y,R30
	LDS  R30,_thu
	ST   -Y,R30
	CALL _ghids
; 0000 072E    EIMSK=0x01;  // k cho phep ngat ngoai 0  <at328>
	LDI  R30,LOW(1)
	OUT  0x1D,R30
; 0000 072F    return ;
	RJMP _0x2000004
; 0000 0730  }
; 0000 0731 
; 0000 0732  }
_0x3B0:
	RJMP _0x38B
; 0000 0733 
; 0000 0734  }
; 0000 0735  }
_0x37C:
	RJMP _0x358
; 0000 0736 
; 0000 0737  }
; 0000 0738 
; 0000 0739  }
_0x349:
	RJMP _0x325
; 0000 073A 
; 0000 073B }
; 0000 073C 
; 0000 073D  }
_0x316:
	RJMP _0x2F2
; 0000 073E 
; 0000 073F  }
; 0000 0740 
; 0000 0741 
; 0000 0742  }
_0x2E3:
	RJMP _0x2BF
; 0000 0743  }
; 0000 0744  }
_0x2B0:
	RJMP _0x28C
; 0000 0745 
; 0000 0746 }
_0x2000004:
	CALL __LOADLOCR4
	ADIW R28,4
	RET
;
;
;
;void kiemtrathu()
; 0000 074B {
_kiemtrathu:
; 0000 074C  switch (docds(0x03))
	LDI  R30,LOW(3)
	ST   -Y,R30
	CALL _docds
; 0000 074D    {
; 0000 074E      case 2:
	CPI  R30,LOW(0x2)
	BRNE _0x3BB
; 0000 074F      {t1='T'-65;t2='H'-65;t3=33;t4=29;t5='H'-65;t6='A'-65;t7='I'-65;break;}
	CALL SUBOPT_0x91
	LDI  R30,LOW(7)
	STS  _t5,R30
	LDI  R30,LOW(0)
	STS  _t6,R30
	LDI  R30,LOW(8)
	RJMP _0x671
; 0000 0750      case 3:
_0x3BB:
	CPI  R30,LOW(0x3)
	BRNE _0x3BC
; 0000 0751      {t1='T'-65;t2='H'-65;t3=33;t4=29;t5='B'-65;t6='A'-65;t7=29;break;}
	CALL SUBOPT_0x91
	LDI  R30,LOW(1)
	STS  _t5,R30
	LDI  R30,LOW(0)
	STS  _t6,R30
	LDI  R30,LOW(29)
	RJMP _0x671
; 0000 0752      case 4:
_0x3BC:
	CPI  R30,LOW(0x4)
	BRNE _0x3BD
; 0000 0753      {t1='T'-65;t2='H'-65;t3=33;t4=29;t5='T'-65;t6='U'-65;t7=29;break;}
	CALL SUBOPT_0x91
	LDI  R30,LOW(19)
	STS  _t5,R30
	LDI  R30,LOW(20)
	STS  _t6,R30
	LDI  R30,LOW(29)
	RJMP _0x671
; 0000 0754      case 5:
_0x3BD:
	CPI  R30,LOW(0x5)
	BRNE _0x3BE
; 0000 0755      {t1='T'-65;t2='H'-65;t3=33;t4=29;t5='N'-65;t6=34;t7='M'-65;break;}
	CALL SUBOPT_0x91
	LDI  R30,LOW(13)
	STS  _t5,R30
	LDI  R30,LOW(34)
	STS  _t6,R30
	LDI  R30,LOW(12)
	RJMP _0x671
; 0000 0756      case 6:
_0x3BE:
	CPI  R30,LOW(0x6)
	BRNE _0x3BF
; 0000 0757      {t1='T'-65;t2='H'-65;t3=33;t4=29;t5='S'-65;t6=36;t7='U'-65;break;}
	CALL SUBOPT_0x91
	LDI  R30,LOW(18)
	STS  _t5,R30
	LDI  R30,LOW(36)
	STS  _t6,R30
	LDI  R30,LOW(20)
	RJMP _0x671
; 0000 0758      case 7:
_0x3BF:
	CPI  R30,LOW(0x7)
	BRNE _0x3C0
; 0000 0759      {t1='T'-65;t2='H'-65;t3=33;t4=29;t5='B'-65;t6=48;t7='Y'-65;break;}
	CALL SUBOPT_0x91
	LDI  R30,LOW(1)
	STS  _t5,R30
	LDI  R30,LOW(48)
	STS  _t6,R30
	LDI  R30,LOW(24)
	RJMP _0x671
; 0000 075A      case 1:
_0x3C0:
	CPI  R30,LOW(0x1)
	BRNE _0x3BA
; 0000 075B      {t1='C'-65;t2='H'-65;t3=27;t4='N'-65;t5='H'-65;t6=40;t7='T'-65;break;}
	LDI  R30,LOW(2)
	STS  _t1,R30
	LDI  R30,LOW(7)
	STS  _t2,R30
	LDI  R30,LOW(27)
	STS  _t3,R30
	LDI  R30,LOW(13)
	STS  _t4,R30
	LDI  R30,LOW(7)
	STS  _t5,R30
	LDI  R30,LOW(40)
	STS  _t6,R30
	LDI  R30,LOW(19)
_0x671:
	STS  _t7,R30
; 0000 075C    };
_0x3BA:
; 0000 075D 
; 0000 075E }
	RET
;
;void chayngaythang()
; 0000 0761 {
_chayngaythang:
; 0000 0762   unsigned char a,b,c;
; 0000 0763   unsigned int d;
; 0000 0764   EIMSK=0x00;  // k cho phep ngat ngoai 0  <at328>
	CALL __SAVELOCR6
;	a -> R17
;	b -> R16
;	c -> R19
;	d -> R20,R21
	LDI  R30,LOW(0)
	OUT  0x1D,R30
; 0000 0765   cobaothoat=0;
	STS  _cobaothoat,R30
; 0000 0766   laythoigiantrongds1();
	RCALL _laythoigiantrongds1
; 0000 0767   kiemtrathu();
	RCALL _kiemtrathu
; 0000 0768   laynhietdo();
	CALL _laynhietdo
; 0000 0769   am_lich();
	CALL _am_lich
; 0000 076A   EIMSK=0x01;  //  cho phep ngat ngoai 0  <at328>
	LDI  R30,LOW(1)
	OUT  0x1D,R30
; 0000 076B  // --cuon len : phut :
; 0000 076C   for(c=0;c<15;c++)
	LDI  R19,LOW(0)
_0x3C3:
	CPI  R19,15
	BRSH _0x3C4
; 0000 076D   {
; 0000 076E   for(b=0;b<3;b++){hienthi();}  // hien thi
	LDI  R16,LOW(0)
_0x3C6:
	CPI  R16,3
	BRSH _0x3C7
	CALL _hienthi
	SUBI R16,-1
	RJMP _0x3C6
_0x3C7:
; 0000 076F   for(a=0;a<15;a++){ma[a][2]=ma[a+1][2];ma[a][3]=ma[a+1][3];ma[a][4]=ma[a+1][4];ma[a][5]=ma[a+1][5];
	LDI  R17,LOW(0)
_0x3C9:
	CPI  R17,15
	BRSH _0x3CA
	CALL SUBOPT_0x17
	MOVW R0,R30
	CALL __LSLW3
	__ADDW1MN _ma,2
	CALL SUBOPT_0x92
	CALL SUBOPT_0x7A
	MOVW R0,R30
	CALL __LSLW3
	__ADDW1MN _ma,3
	CALL SUBOPT_0x92
	CALL SUBOPT_0x38
	CALL SUBOPT_0x80
	CALL SUBOPT_0x81
	CALL SUBOPT_0x7D
; 0000 0770   }
	SUBI R17,-1
	RJMP _0x3C9
_0x3CA:
; 0000 0771   }
	SUBI R19,-1
	RJMP _0x3C3
_0x3C4:
; 0000 0772  // --- cuon xuong Gio Giay
; 0000 0773   for(c=0;c<17;c++)
	LDI  R19,LOW(0)
_0x3CC:
	CPI  R19,17
	BRSH _0x3CD
; 0000 0774   {
; 0000 0775   for(b=0;b<3;b++){hienthi();}  // hien thi
	LDI  R16,LOW(0)
_0x3CF:
	CPI  R16,3
	BRSH _0x3D0
	CALL _hienthi
	SUBI R16,-1
	RJMP _0x3CF
_0x3D0:
; 0000 0776   for(a=16;a>1;a--){ma[a-1][0]=ma[a-2][0];ma[a-1][1]=ma[a-2][1];ma[a-1][6]=ma[a-2][6];ma[a-1][7]=ma[a-2][7];}
	LDI  R17,LOW(16)
_0x3D2:
	CPI  R17,2
	BRLO _0x3D3
	CALL SUBOPT_0x17
	CALL SUBOPT_0x3D
	CALL SUBOPT_0x3E
	CALL SUBOPT_0x3F
	MOVW R0,R30
	CALL SUBOPT_0x20
	CALL SUBOPT_0x30
	CALL SUBOPT_0x40
	MOVW R0,R30
	CALL SUBOPT_0x27
	CALL SUBOPT_0x30
	CALL SUBOPT_0x31
	MOVW R0,R30
	CALL SUBOPT_0x29
	CALL SUBOPT_0x30
	CALL SUBOPT_0x32
	SUBI R17,1
	RJMP _0x3D2
_0x3D3:
; 0000 0777   }
	SUBI R19,-1
	RJMP _0x3CC
_0x3CD:
; 0000 0778   //-------------------------------------------------------
; 0000 0779   cobaothoat=0;
	LDI  R30,LOW(0)
	STS  _cobaothoat,R30
; 0000 077A   if(ngay==ngaysinhnhat && thang==thangsinhnhat && giay>0 && phut%5==0)
	LDS  R30,_ngaysinhnhat
	LDS  R26,_ngay
	CP   R30,R26
	BRNE _0x3D5
	LDS  R30,_thangsinhnhat
	LDS  R26,_thang
	CP   R30,R26
	BRNE _0x3D5
	LDI  R30,LOW(0)
	CP   R30,R13
	BRSH _0x3D5
	MOV  R26,R14
	CLR  R27
	LDI  R30,LOW(5)
	LDI  R31,HIGH(5)
	CALL __MODW21
	SBIW R30,0
	BREQ _0x3D6
_0x3D5:
	RJMP _0x3D4
_0x3D6:
; 0000 077B   {
; 0000 077C     for(d=0;d<220;d++)
	__GETWRN 20,21,0
_0x3D8:
	__CPWRN 20,21,220
	BRSH _0x3D9
; 0000 077D      {
; 0000 077E        chaychuchucmungsinhnhat();
	CALL _chaychuchucmungsinhnhat
; 0000 077F        if(cobaothoat==1)
	LDS  R26,_cobaothoat
	CPI  R26,LOW(0x1)
	BRNE _0x3DA
; 0000 0780        {
; 0000 0781         cobaothoat=0;
	LDI  R30,LOW(0)
	STS  _cobaothoat,R30
; 0000 0782          dem1=0;
	RJMP _0x672
; 0000 0783          dem=0;
; 0000 0784         goto thoatchayngaythang;
; 0000 0785        }
; 0000 0786       }
_0x3DA:
	__ADDWRN 20,21,1
	RJMP _0x3D8
_0x3D9:
; 0000 0787   }
; 0000 0788   else
	RJMP _0x3DC
_0x3D4:
; 0000 0789   {
; 0000 078A      for(d=0;d<424;d++)
	__GETWRN 20,21,0
_0x3DE:
	__CPWRN 20,21,424
	BRSH _0x3DF
; 0000 078B       {
; 0000 078C        chaychu4();
	CALL _chaychu4
; 0000 078D        if(cobaothoat==1)
	LDS  R26,_cobaothoat
	CPI  R26,LOW(0x1)
	BRNE _0x3E0
; 0000 078E        {
; 0000 078F         cobaothoat=0;
	LDI  R30,LOW(0)
	STS  _cobaothoat,R30
; 0000 0790          dem1=0;
	RJMP _0x672
; 0000 0791          dem=0;
; 0000 0792         goto thoatchayngaythang;
; 0000 0793        }
; 0000 0794       }
_0x3E0:
	__ADDWRN 20,21,1
	RJMP _0x3DE
_0x3DF:
; 0000 0795   }
_0x3DC:
; 0000 0796 
; 0000 0797   dem1=0;
_0x672:
	CLR  R5
	CLR  R6
; 0000 0798   dem=0;
	CLR  R3
	CLR  R4
; 0000 0799   thoatchayngaythang:;
; 0000 079A   //-------------------------------------------------
; 0000 079B  for(c=0;c<15;c++)
	LDI  R19,LOW(0)
_0x3E2:
	CPI  R19,15
	BRLO PC+3
	JMP _0x3E3
; 0000 079C   {
; 0000 079D   ma[0][2]=so[10][15-c];
	CALL SUBOPT_0x79
	CALL SUBOPT_0x34
	CALL SUBOPT_0x6C
; 0000 079E   ma[0][3]=so[phut/10][15-c];
	MOV  R26,R14
	CALL SUBOPT_0x14
	CALL SUBOPT_0x33
	CALL SUBOPT_0x34
	CALL SUBOPT_0x3A
; 0000 079F   ma[0][4]=so[phut%10][15-c];
	CALL SUBOPT_0x33
	CALL SUBOPT_0x34
	CALL SUBOPT_0x71
; 0000 07A0   ma[0][5]=so[10][15-c];
	CALL SUBOPT_0x79
	CALL SUBOPT_0x34
	CALL SUBOPT_0x73
; 0000 07A1         for(b=0;b<3;b++)
	LDI  R16,LOW(0)
_0x3E5:
	CPI  R16,3
	BRSH _0x3E6
; 0000 07A2         {
; 0000 07A3          hienthi();
	CALL _hienthi
; 0000 07A4         }
	SUBI R16,-1
	RJMP _0x3E5
_0x3E6:
; 0000 07A5        for(a=16;a>1;a--)
	LDI  R17,LOW(16)
_0x3E8:
	CPI  R17,2
	BRLO _0x3E9
; 0000 07A6          {
; 0000 07A7            ma[a-1][2]=ma[a-2][2];
	CALL SUBOPT_0x17
	CALL SUBOPT_0x6D
	CALL SUBOPT_0x6E
	CALL SUBOPT_0x7A
; 0000 07A8            ma[a-1][3]=ma[a-2][3];
	MOVW R0,R30
	CALL SUBOPT_0x23
	CALL SUBOPT_0x30
	CALL SUBOPT_0x38
; 0000 07A9            ma[a-1][4]=ma[a-2][4];
	MOVW R0,R30
	CALL SUBOPT_0x25
	CALL SUBOPT_0x30
	CALL SUBOPT_0x39
; 0000 07AA            ma[a-1][5]=ma[a-2][5];;
	CALL SUBOPT_0x6D
	CALL SUBOPT_0x75
	CALL SUBOPT_0x7D
; 0000 07AB          }
	SUBI R17,1
	RJMP _0x3E8
_0x3E9:
; 0000 07AC   }
	SUBI R19,-1
	RJMP _0x3E2
_0x3E3:
; 0000 07AD 
; 0000 07AE    giay=docds(0x00);
	CALL SUBOPT_0x93
; 0000 07AF   for(c=0;c<15;c++)
	LDI  R19,LOW(0)
_0x3EB:
	CPI  R19,15
	BRLO PC+3
	JMP _0x3EC
; 0000 07B0   {
; 0000 07B1   ma[15][0]=so[gio/10][c];
	MOV  R26,R9
	CALL SUBOPT_0x14
	CALL SUBOPT_0x6A
	MOVW R26,R30
	CALL SUBOPT_0x19
	ADD  R30,R26
	ADC  R31,R27
	LPM  R0,Z
	__PUTBR0MN _ma,120
; 0000 07B2   ma[15][1]=so[gio%10][c];
	MOV  R26,R9
	CALL SUBOPT_0x15
	CALL SUBOPT_0x6A
	MOVW R26,R30
	CALL SUBOPT_0x19
	ADD  R30,R26
	ADC  R31,R27
	LPM  R0,Z
	__PUTBR0MN _ma,121
; 0000 07B3   ma[15][6]=so[giay/10][c];
	MOV  R26,R13
	CALL SUBOPT_0x14
	CALL SUBOPT_0x6A
	MOVW R26,R30
	CALL SUBOPT_0x19
	CALL SUBOPT_0x89
; 0000 07B4   ma[15][7]=so[giay%10][c];
	MOV  R26,R13
	CALL SUBOPT_0x15
	CALL SUBOPT_0x6A
	MOVW R26,R30
	CALL SUBOPT_0x19
	CALL SUBOPT_0x8A
; 0000 07B5         for(b=0;b<3;b++)
_0x3EE:
	CPI  R16,3
	BRSH _0x3EF
; 0000 07B6         {
; 0000 07B7          hienthi();
	CALL _hienthi
; 0000 07B8         }
	SUBI R16,-1
	RJMP _0x3EE
_0x3EF:
; 0000 07B9        for(a=0;a<15;a++)
	LDI  R17,LOW(0)
_0x3F1:
	CPI  R17,15
	BRSH _0x3F2
; 0000 07BA          {
; 0000 07BB            ma[a][0]=ma[a+1][0];
	CALL SUBOPT_0x17
	MOVW R0,R30
	CALL SUBOPT_0x1B
	MOVW R26,R30
	MOVW R30,R0
	ADIW R30,1
	CALL SUBOPT_0x1B
	CALL SUBOPT_0x3F
; 0000 07BC            ma[a][1]=ma[a+1][1];
	MOVW R0,R30
	CALL __LSLW3
	__ADDW1MN _ma,1
	CALL SUBOPT_0x92
	CALL SUBOPT_0x40
; 0000 07BD            ma[a][6]=ma[a+1][6];
	CALL SUBOPT_0x8B
; 0000 07BE            ma[a][7]=ma[a+1][7];
	CALL SUBOPT_0x8C
; 0000 07BF          }
	SUBI R17,-1
	RJMP _0x3F1
_0x3F2:
; 0000 07C0   }
	SUBI R19,-1
	RJMP _0x3EB
_0x3EC:
; 0000 07C1 
; 0000 07C2   giay=docds(0);
	CALL SUBOPT_0x93
; 0000 07C3 }
	CALL __LOADLOCR6
	ADIW R28,6
	RET
;
;void laythoigiantrongds()    // muc dich cua ham nay la lay gia tri thoi gian trong ds1307
; 0000 07C6 {
_laythoigiantrongds:
; 0000 07C7    giay=docds(0x00); // doc gia tri trong thanh ghi 0x00 ( chnh l thanh ghi giay)
	CALL SUBOPT_0x93
; 0000 07C8    if(giay==0)
	TST  R13
	BRNE _0x3F3
; 0000 07C9    {
; 0000 07CA      phut=docds(0x01); // doc gia tri trong thanh ghi 0x01 ( chnh l thanh ghi phut)
	CALL SUBOPT_0x94
; 0000 07CB      if(phut==0)
	TST  R14
	BRNE _0x3F4
; 0000 07CC      {
; 0000 07CD        gio=docds(0x02); // doc gia tri trong thanh ghi 0x02 ( chnh l thanh ghi gio)
	CALL SUBOPT_0x95
; 0000 07CE      }
; 0000 07CF    }
_0x3F4:
; 0000 07D0 }
_0x3F3:
	RET
;void laythoigiantrongds3()    // muc dich cua ham nay la lay gia tri thoi gian trong ds1307
; 0000 07D2 {
_laythoigiantrongds3:
; 0000 07D3    giay=docds(0x00); // doc gia tri trong thanh ghi 0x00 ( chnh l thanh ghi giay)
	CALL SUBOPT_0x93
; 0000 07D4    phut=docds(0x01); // doc gia tri trong thanh ghi 0x01 ( chnh l thanh ghi phut)
	CALL SUBOPT_0x94
; 0000 07D5    gio=docds(0x02); // doc gia tri trong thanh ghi 0x02 ( chnh l thanh ghi gio)
	CALL SUBOPT_0x95
; 0000 07D6 }
	RET
;void laythoigiantrongds1()    // muc dich cua ham nay la lay gia tri thoi gian trong ds1307
; 0000 07D8 {
_laythoigiantrongds1:
; 0000 07D9    giay=docds(0x00); // doc gia tri trong thanh ghi 0x00 ( chnh l thanh ghi giay)
	CALL SUBOPT_0x93
; 0000 07DA    phut=docds(0x01); // doc gia tri trong thanh ghi 0x01 ( chnh l thanh ghi phut)
	CALL SUBOPT_0x94
; 0000 07DB    gio=docds(0x02); // doc gia tri trong thanh ghi 0x02 ( chnh l thanh ghi gio)
	CALL SUBOPT_0x95
; 0000 07DC    ngay=docds(0x04); // doc gia tri trong thanh ghi 0x04 ( chnh l thanh ghi ngay)
	LDI  R30,LOW(4)
	ST   -Y,R30
	CALL _docds
	STS  _ngay,R30
; 0000 07DD    thu=docds(0x03); // doc gia tri trong thanh ghi 0x03 ( chnh l thanh ghi thu)
	LDI  R30,LOW(3)
	ST   -Y,R30
	CALL _docds
	STS  _thu,R30
; 0000 07DE    thang=docds(0x05); // doc gia tri trong thanh ghi 0x05 ( chnh l thanh ghi thang)
	LDI  R30,LOW(5)
	ST   -Y,R30
	CALL _docds
	STS  _thang,R30
; 0000 07DF    nam=docds(0x06); // doc gia tri trong thanh ghi 0x06 ( chnh l thanh ghi nam)
	LDI  R30,LOW(6)
	ST   -Y,R30
	CALL _docds
	STS  _nam,R30
; 0000 07E0 }
	RET
;
;void xuongchuluccaidat(unsigned char z,unsigned char x,unsigned char r
; 0000 07E3 ,unsigned char t,unsigned char j,unsigned char k,unsigned char l,unsigned char h)
; 0000 07E4 {
_xuongchuluccaidat:
; 0000 07E5 unsigned char a,b,c;
; 0000 07E6 EIMSK=0x00;  // k cho phep ngat ngoai 0  <at328>
	CALL SUBOPT_0x2C
;	z -> Y+11
;	x -> Y+10
;	r -> Y+9
;	t -> Y+8
;	j -> Y+7
;	k -> Y+6
;	l -> Y+5
;	h -> Y+4
;	a -> R17
;	b -> R16
;	c -> R19
; 0000 07E7   for(c=0;c<17;c++)
	LDI  R19,LOW(0)
_0x3F6:
	CPI  R19,17
	BRLO PC+3
	JMP _0x3F7
; 0000 07E8   {
; 0000 07E9   ma[0][0]=chu[z][17-c];
	LDD  R30,Y+11
	CALL SUBOPT_0x64
	MOVW R22,R30
	CALL SUBOPT_0x19
	CALL SUBOPT_0x6B
	CALL SUBOPT_0x42
; 0000 07EA   ma[0][1]=chu[x][17-c];
	LDD  R30,Y+10
	CALL SUBOPT_0x64
	MOVW R22,R30
	CALL SUBOPT_0x19
	CALL SUBOPT_0x6B
	CALL SUBOPT_0x44
; 0000 07EB   ma[0][2]=chu[r][17-c];
	LDD  R30,Y+9
	CALL SUBOPT_0x64
	MOVW R22,R30
	CALL SUBOPT_0x19
	CALL SUBOPT_0x6B
	CALL SUBOPT_0x6C
; 0000 07EC   ma[0][3]=chu[t][17-c];
	CALL SUBOPT_0x54
	CALL SUBOPT_0x96
	CALL SUBOPT_0x6B
	CALL SUBOPT_0x6F
; 0000 07ED   ma[0][4]=chu[j][17-c];
	LDD  R30,Y+7
	CALL SUBOPT_0x64
	MOVW R22,R30
	CALL SUBOPT_0x19
	CALL SUBOPT_0x6B
	CALL SUBOPT_0x71
; 0000 07EE   ma[0][5]=chu[k][17-c];
	LDD  R30,Y+6
	CALL SUBOPT_0x64
	MOVW R22,R30
	CALL SUBOPT_0x19
	CALL SUBOPT_0x6B
	CALL SUBOPT_0x73
; 0000 07EF   ma[0][6]=chu[l][17-c];
	LDD  R30,Y+5
	CALL SUBOPT_0x64
	MOVW R22,R30
	CALL SUBOPT_0x19
	CALL SUBOPT_0x6B
	CALL SUBOPT_0x97
; 0000 07F0   ma[0][7]=chu[h][17-c];
	CALL SUBOPT_0x64
	MOVW R22,R30
	CALL SUBOPT_0x19
	CALL SUBOPT_0x6B
	CALL SUBOPT_0x36
; 0000 07F1   for(b=0;b<3;b++){hienthi();}  // hien thi
_0x3F9:
	CPI  R16,3
	BRSH _0x3FA
	CALL _hienthi
	SUBI R16,-1
	RJMP _0x3F9
_0x3FA:
; 0000 07F2        for(a=16;a>1;a--)
	LDI  R17,LOW(16)
_0x3FC:
	CPI  R17,2
	BRLO _0x3FD
; 0000 07F3          {
; 0000 07F4            ma[a-1][0]=ma[a-2][0];
	CALL SUBOPT_0x17
	CALL SUBOPT_0x3D
	CALL SUBOPT_0x3E
	CALL SUBOPT_0x3F
; 0000 07F5            ma[a-1][1]=ma[a-2][1];
	MOVW R0,R30
	CALL SUBOPT_0x20
	CALL SUBOPT_0x30
	CALL SUBOPT_0x40
; 0000 07F6            ma[a-1][2]=ma[a-2][2];
	CALL SUBOPT_0x6D
	CALL SUBOPT_0x6E
	CALL SUBOPT_0x7A
; 0000 07F7            ma[a-1][3]=ma[a-2][3];
	MOVW R0,R30
	CALL SUBOPT_0x23
	CALL SUBOPT_0x30
	CALL SUBOPT_0x38
; 0000 07F8            ma[a-1][4]=ma[a-2][4];
	MOVW R0,R30
	CALL SUBOPT_0x25
	CALL SUBOPT_0x30
	CALL SUBOPT_0x39
; 0000 07F9            ma[a-1][5]=ma[a-2][5];
	CALL SUBOPT_0x6D
	CALL SUBOPT_0x75
	CALL SUBOPT_0x76
; 0000 07FA            ma[a-1][6]=ma[a-2][6];
	MOVW R0,R30
	CALL SUBOPT_0x27
	CALL SUBOPT_0x30
	CALL SUBOPT_0x31
; 0000 07FB            ma[a-1][7]=ma[a-2][7];
	MOVW R0,R30
	CALL SUBOPT_0x29
	CALL SUBOPT_0x30
	CALL SUBOPT_0x32
; 0000 07FC          }
	SUBI R17,1
	RJMP _0x3FC
_0x3FD:
; 0000 07FD   }
	SUBI R19,-1
	RJMP _0x3F6
_0x3F7:
; 0000 07FE   ma[0][1]=chu[35][0];
	RJMP _0x2000003
; 0000 07FF EIMSK=0x01;  // cho phep ngat ngoai 0  <at328>
; 0000 0800 }
;void xuongchuluccaidatds(unsigned char z,unsigned char x,unsigned char r
; 0000 0802 ,unsigned char t,unsigned char j,unsigned char k,unsigned char l,unsigned char h)
; 0000 0803 {
_xuongchuluccaidatds:
; 0000 0804 unsigned char a,b,c;
; 0000 0805 EIMSK=0x00;  // k cho phep ngat ngoai 0  <at328>
	CALL SUBOPT_0x2C
;	z -> Y+11
;	x -> Y+10
;	r -> Y+9
;	t -> Y+8
;	j -> Y+7
;	k -> Y+6
;	l -> Y+5
;	h -> Y+4
;	a -> R17
;	b -> R16
;	c -> R19
; 0000 0806   for(c=0;c<17;c++)
	LDI  R19,LOW(0)
_0x3FF:
	CPI  R19,17
	BRLO PC+3
	JMP _0x400
; 0000 0807   {
; 0000 0808   ma[0][0]=chu[z][17-c];
	LDD  R30,Y+11
	CALL SUBOPT_0x64
	MOVW R22,R30
	CALL SUBOPT_0x19
	CALL SUBOPT_0x6B
	CALL SUBOPT_0x42
; 0000 0809   ma[0][1]=chu[x][17-c];
	LDD  R30,Y+10
	CALL SUBOPT_0x64
	MOVW R22,R30
	CALL SUBOPT_0x19
	CALL SUBOPT_0x6B
	CALL SUBOPT_0x44
; 0000 080A   ma[0][2]=chu[r][17-c];
	LDD  R30,Y+9
	CALL SUBOPT_0x64
	MOVW R22,R30
	CALL SUBOPT_0x19
	CALL SUBOPT_0x6B
	CALL SUBOPT_0x6C
; 0000 080B   ma[0][3]=chu[t][17-c];
	CALL SUBOPT_0x54
	CALL SUBOPT_0x96
	CALL SUBOPT_0x6B
	CALL SUBOPT_0x6F
; 0000 080C   ma[0][4]=so[j][17-c];
	CALL SUBOPT_0x98
	CALL SUBOPT_0x6B
	CALL SUBOPT_0x71
; 0000 080D   ma[0][5]=so[k][17-c];
	CALL SUBOPT_0x99
	CALL SUBOPT_0x6B
	CALL SUBOPT_0x73
; 0000 080E   ma[0][6]=so[l][17-c];
	CALL SUBOPT_0x9A
	CALL SUBOPT_0x6B
	CALL SUBOPT_0x97
; 0000 080F   ma[0][7]=so[h][17-c];
	CALL SUBOPT_0x9B
	CALL SUBOPT_0x6B
	CALL SUBOPT_0x36
; 0000 0810   for(b=0;b<3;b++){hienthi();}  // hien thi
_0x402:
	CPI  R16,3
	BRSH _0x403
	CALL _hienthi
	SUBI R16,-1
	RJMP _0x402
_0x403:
; 0000 0811        for(a=16;a>1;a--)
	LDI  R17,LOW(16)
_0x405:
	CPI  R17,2
	BRLO _0x406
; 0000 0812          {
; 0000 0813            ma[a-1][0]=ma[a-2][0];
	CALL SUBOPT_0x17
	CALL SUBOPT_0x3D
	CALL SUBOPT_0x3E
	CALL SUBOPT_0x3F
; 0000 0814            ma[a-1][1]=ma[a-2][1];
	MOVW R0,R30
	CALL SUBOPT_0x20
	CALL SUBOPT_0x30
	CALL SUBOPT_0x40
; 0000 0815            ma[a-1][2]=ma[a-2][2];
	CALL SUBOPT_0x6D
	CALL SUBOPT_0x6E
	CALL SUBOPT_0x7A
; 0000 0816            ma[a-1][3]=ma[a-2][3];
	MOVW R0,R30
	CALL SUBOPT_0x23
	CALL SUBOPT_0x30
	CALL SUBOPT_0x38
; 0000 0817            ma[a-1][4]=ma[a-2][4];
	MOVW R0,R30
	CALL SUBOPT_0x25
	CALL SUBOPT_0x30
	CALL SUBOPT_0x39
; 0000 0818            ma[a-1][5]=ma[a-2][5];
	CALL SUBOPT_0x6D
	CALL SUBOPT_0x75
	CALL SUBOPT_0x76
; 0000 0819            ma[a-1][6]=ma[a-2][6];
	MOVW R0,R30
	CALL SUBOPT_0x27
	CALL SUBOPT_0x30
	CALL SUBOPT_0x31
; 0000 081A            ma[a-1][7]=ma[a-2][7];
	MOVW R0,R30
	CALL SUBOPT_0x29
	CALL SUBOPT_0x30
	CALL SUBOPT_0x32
; 0000 081B          }
	SUBI R17,1
	RJMP _0x405
_0x406:
; 0000 081C   }
	SUBI R19,-1
	RJMP _0x3FF
_0x400:
; 0000 081D   ma[0][1]=chu[35][0];
	RJMP _0x2000003
; 0000 081E EIMSK=0x01;  //  cho phep ngat ngoai 0  <at328>
; 0000 081F }
;void xuongsosaucaidat(unsigned char z,unsigned char x,unsigned char r
; 0000 0821 ,unsigned char t,unsigned char j,unsigned char k,unsigned char l,unsigned char h)
; 0000 0822 {
_xuongsosaucaidat:
; 0000 0823 unsigned char a,b,c;
; 0000 0824 EIMSK=0x00;  // k cho phep ngat ngoai 0  <at328>
	CALL SUBOPT_0x2C
;	z -> Y+11
;	x -> Y+10
;	r -> Y+9
;	t -> Y+8
;	j -> Y+7
;	k -> Y+6
;	l -> Y+5
;	h -> Y+4
;	a -> R17
;	b -> R16
;	c -> R19
; 0000 0825   for(c=0;c<17;c++)
	LDI  R19,LOW(0)
_0x408:
	CPI  R19,17
	BRLO PC+3
	JMP _0x409
; 0000 0826   {
; 0000 0827   ma[0][0]=so[z][17-c];
	LDD  R30,Y+11
	CALL SUBOPT_0x9B
	CALL SUBOPT_0x6B
	CALL SUBOPT_0x42
; 0000 0828   ma[0][1]=so[x][17-c];
	LDD  R30,Y+10
	CALL SUBOPT_0x9B
	CALL SUBOPT_0x6B
	CALL SUBOPT_0x44
; 0000 0829   ma[0][2]=so[r][17-c];
	LDD  R30,Y+9
	CALL SUBOPT_0x9B
	CALL SUBOPT_0x6B
	CALL SUBOPT_0x6C
; 0000 082A   ma[0][3]=so[t][17-c];
	CALL SUBOPT_0x54
	CALL SUBOPT_0x33
	CALL SUBOPT_0x6B
	CALL SUBOPT_0x6F
; 0000 082B   ma[0][4]=so[j][17-c];
	CALL SUBOPT_0x98
	CALL SUBOPT_0x6B
	CALL SUBOPT_0x71
; 0000 082C   ma[0][5]=so[k][17-c];
	CALL SUBOPT_0x99
	CALL SUBOPT_0x6B
	CALL SUBOPT_0x73
; 0000 082D   ma[0][6]=so[l][17-c];
	CALL SUBOPT_0x9A
	CALL SUBOPT_0x6B
	CALL SUBOPT_0x97
; 0000 082E   ma[0][7]=so[h][17-c];
	CALL SUBOPT_0x9B
	CALL SUBOPT_0x6B
	CALL SUBOPT_0x36
; 0000 082F   for(b=0;b<3;b++){hienthi();}  // hien thi
_0x40B:
	CPI  R16,3
	BRSH _0x40C
	CALL _hienthi
	SUBI R16,-1
	RJMP _0x40B
_0x40C:
; 0000 0830        for(a=16;a>1;a--)
	LDI  R17,LOW(16)
_0x40E:
	CPI  R17,2
	BRLO _0x40F
; 0000 0831          {
; 0000 0832            ma[a-1][0]=ma[a-2][0];
	CALL SUBOPT_0x17
	CALL SUBOPT_0x3D
	CALL SUBOPT_0x3E
	CALL SUBOPT_0x3F
; 0000 0833            ma[a-1][1]=ma[a-2][1];
	MOVW R0,R30
	CALL SUBOPT_0x20
	CALL SUBOPT_0x30
	CALL SUBOPT_0x40
; 0000 0834            ma[a-1][2]=ma[a-2][2];
	CALL SUBOPT_0x6D
	CALL SUBOPT_0x6E
	CALL SUBOPT_0x7A
; 0000 0835            ma[a-1][3]=ma[a-2][3];
	MOVW R0,R30
	CALL SUBOPT_0x23
	CALL SUBOPT_0x30
	CALL SUBOPT_0x38
; 0000 0836            ma[a-1][4]=ma[a-2][4];
	MOVW R0,R30
	CALL SUBOPT_0x25
	CALL SUBOPT_0x30
	CALL SUBOPT_0x39
; 0000 0837            ma[a-1][5]=ma[a-2][5];
	CALL SUBOPT_0x6D
	CALL SUBOPT_0x75
	CALL SUBOPT_0x76
; 0000 0838            ma[a-1][6]=ma[a-2][6];
	MOVW R0,R30
	CALL SUBOPT_0x27
	CALL SUBOPT_0x30
	CALL SUBOPT_0x31
; 0000 0839            ma[a-1][7]=ma[a-2][7];
	MOVW R0,R30
	CALL SUBOPT_0x29
	CALL SUBOPT_0x30
	CALL SUBOPT_0x32
; 0000 083A          }
	SUBI R17,1
	RJMP _0x40E
_0x40F:
; 0000 083B   }
	SUBI R19,-1
	RJMP _0x408
_0x409:
; 0000 083C   ma[0][1]=chu[35][0];
_0x2000003:
	__POINTW1FN _chu,560
	LPM  R0,Z
	__PUTBR0MN _ma,1
; 0000 083D   EIMSK=0x01;  //  cho phep ngat ngoai 0  <at328>
	LDI  R30,LOW(1)
	OUT  0x1D,R30
; 0000 083E }
	CALL __LOADLOCR4
	ADIW R28,12
	RET
;
;
;void laydosang()
; 0000 0842 {
_laydosang:
; 0000 0843   if(docdulieu(24) > 10){ghidulieu(24,3);}
	LDI  R30,LOW(24)
	ST   -Y,R30
	CALL _docdulieu
	CPI  R30,LOW(0xB)
	BRLO _0x410
	LDI  R30,LOW(24)
	ST   -Y,R30
	LDI  R30,LOW(3)
	ST   -Y,R30
	CALL _ghidulieu
; 0000 0844   dosang=docdulieu(24);
_0x410:
	LDI  R30,LOW(24)
	ST   -Y,R30
	CALL _docdulieu
	MOV  R10,R30
; 0000 0845      switch (dosang)
	MOV  R30,R10
	CALL SUBOPT_0x18
; 0000 0846      {
; 0000 0847       case 1:{sang=5;break;}
	BRNE _0x414
	LDI  R30,LOW(5)
	LDI  R31,HIGH(5)
	RJMP _0x673
; 0000 0848       case 2:{sang=10;break;}
_0x414:
	CPI  R30,LOW(0x2)
	LDI  R26,HIGH(0x2)
	CPC  R31,R26
	BRNE _0x415
	LDI  R30,LOW(10)
	LDI  R31,HIGH(10)
	RJMP _0x673
; 0000 0849       case 3:{sang=30;break;}
_0x415:
	CPI  R30,LOW(0x3)
	LDI  R26,HIGH(0x3)
	CPC  R31,R26
	BRNE _0x416
	LDI  R30,LOW(30)
	LDI  R31,HIGH(30)
	RJMP _0x673
; 0000 084A       case 4:{sang=80;break;}
_0x416:
	CPI  R30,LOW(0x4)
	LDI  R26,HIGH(0x4)
	CPC  R31,R26
	BRNE _0x417
	LDI  R30,LOW(80)
	LDI  R31,HIGH(80)
	RJMP _0x673
; 0000 084B       case 5:{sang=150;break;}
_0x417:
	CPI  R30,LOW(0x5)
	LDI  R26,HIGH(0x5)
	CPC  R31,R26
	BRNE _0x418
	LDI  R30,LOW(150)
	LDI  R31,HIGH(150)
	RJMP _0x673
; 0000 084C       case 6:{sang=300;break;}
_0x418:
	CPI  R30,LOW(0x6)
	LDI  R26,HIGH(0x6)
	CPC  R31,R26
	BRNE _0x419
	LDI  R30,LOW(300)
	LDI  R31,HIGH(300)
	RJMP _0x673
; 0000 084D       case 7:{sang=400;break;}
_0x419:
	CPI  R30,LOW(0x7)
	LDI  R26,HIGH(0x7)
	CPC  R31,R26
	BRNE _0x41A
	LDI  R30,LOW(400)
	LDI  R31,HIGH(400)
	RJMP _0x673
; 0000 084E       case 8:{sang=600;break;}
_0x41A:
	CPI  R30,LOW(0x8)
	LDI  R26,HIGH(0x8)
	CPC  R31,R26
	BRNE _0x41B
	LDI  R30,LOW(600)
	LDI  R31,HIGH(600)
	RJMP _0x673
; 0000 084F       case 9:{sang=800;break;}
_0x41B:
	CPI  R30,LOW(0x9)
	LDI  R26,HIGH(0x9)
	CPC  R31,R26
	BRNE _0x41C
	LDI  R30,LOW(800)
	LDI  R31,HIGH(800)
	RJMP _0x673
; 0000 0850       case 10:{sang=1000;break;}
_0x41C:
	CPI  R30,LOW(0xA)
	LDI  R26,HIGH(0xA)
	CPC  R31,R26
	BRNE _0x413
	LDI  R30,LOW(1000)
	LDI  R31,HIGH(1000)
_0x673:
	__PUTW1R 11,12
; 0000 0851     };
_0x413:
; 0000 0852 
; 0000 0853 }
	RET
;
;
;
;void caidosang()
; 0000 0858 {
_caidosang:
; 0000 0859   unsigned char a;
; 0000 085A   xuongchuluccaidatds(45,44,27,'S'-65,11,dosang/10,dosang%10,11);
	ST   -Y,R17
;	a -> R17
	LDI  R30,LOW(45)
	ST   -Y,R30
	LDI  R30,LOW(44)
	ST   -Y,R30
	LDI  R30,LOW(27)
	ST   -Y,R30
	LDI  R30,LOW(18)
	ST   -Y,R30
	LDI  R30,LOW(11)
	ST   -Y,R30
	MOV  R26,R10
	CALL SUBOPT_0x14
	ST   -Y,R30
	MOV  R26,R10
	CALL SUBOPT_0x15
	CALL SUBOPT_0x9C
; 0000 085B   while(1)
_0x41E:
; 0000 085C   {
; 0000 085D    hienthi();
	CALL SUBOPT_0x7B
; 0000 085E    if(up==0 || nut ==20)
	BREQ _0x422
	LDS  R26,_nut
	CPI  R26,LOW(0x14)
	BRNE _0x421
_0x422:
; 0000 085F    {
; 0000 0860     EIMSK=0x00;  // k cho phep ngat ngoai 0  <at328>
	CALL SUBOPT_0x83
; 0000 0861     nut=0;
; 0000 0862     while(up==0){hienthi();}
_0x424:
	SBIC 0x6,0
	RJMP _0x426
	CALL _hienthi
	RJMP _0x424
_0x426:
; 0000 0863     dosang++;if(dosang>10)dosang=1;ghidulieu(24,dosang);laydosang();
	INC  R10
	LDI  R30,LOW(10)
	CP   R30,R10
	BRSH _0x427
	LDI  R30,LOW(1)
	MOV  R10,R30
_0x427:
	CALL SUBOPT_0x9D
; 0000 0864     for(a=1;a<17;a++)
_0x429:
	CPI  R17,17
	BRSH _0x42A
; 0000 0865       {
; 0000 0866       ma[a-1][5]=so[dosang/10][a-1];
	CALL SUBOPT_0x17
	CALL SUBOPT_0x9E
	CALL SUBOPT_0x1E
	CALL SUBOPT_0x1F
; 0000 0867       ma[a-1][6]=so[dosang%10][a-1];
	CALL SUBOPT_0x27
	MOVW R22,R30
	MOV  R26,R10
	CALL SUBOPT_0x15
	CALL SUBOPT_0x1E
	CALL SUBOPT_0x2B
; 0000 0868      }
	SUBI R17,-1
	RJMP _0x429
_0x42A:
; 0000 0869      EIMSK=0x01;  //  cho phep ngat ngoai 0  <at328>
	LDI  R30,LOW(1)
	OUT  0x1D,R30
; 0000 086A    }
; 0000 086B    if(down==0 || nut ==21)
_0x421:
	CALL SUBOPT_0x7E
	BREQ _0x42C
	LDS  R26,_nut
	CPI  R26,LOW(0x15)
	BRNE _0x42B
_0x42C:
; 0000 086C    {
; 0000 086D     EIMSK=0x00;  // k cho phep ngat ngoai 0  <at328>
	CALL SUBOPT_0x83
; 0000 086E     nut=0;
; 0000 086F     while(down==0){hienthi();}
_0x42E:
	SBIC 0x6,1
	RJMP _0x430
	CALL _hienthi
	RJMP _0x42E
_0x430:
; 0000 0870     dosang--;if(dosang==0)dosang=10;ghidulieu(24,dosang);laydosang();
	DEC  R10
	TST  R10
	BRNE _0x431
	LDI  R30,LOW(10)
	MOV  R10,R30
_0x431:
	CALL SUBOPT_0x9D
; 0000 0871      for(a=1;a<17;a++)
_0x433:
	CPI  R17,17
	BRSH _0x434
; 0000 0872       {
; 0000 0873       ma[a-1][5]=so[dosang/10][a-1];
	CALL SUBOPT_0x17
	CALL SUBOPT_0x9E
	CALL SUBOPT_0x1E
	CALL SUBOPT_0x1F
; 0000 0874       ma[a-1][6]=so[dosang%10][a-1];
	CALL SUBOPT_0x27
	MOVW R22,R30
	MOV  R26,R10
	CALL SUBOPT_0x15
	CALL SUBOPT_0x1E
	CALL SUBOPT_0x2B
; 0000 0875      }
	SUBI R17,-1
	RJMP _0x433
_0x434:
; 0000 0876      EIMSK=0x01;  // cho phep ngat ngoai 0  <at328>
	LDI  R30,LOW(1)
	OUT  0x1D,R30
; 0000 0877    }
; 0000 0878    if(ok==0 || nut ==22)
_0x42B:
	CALL SUBOPT_0x82
	BREQ _0x436
	LDS  R26,_nut
	CPI  R26,LOW(0x16)
	BRNE _0x435
_0x436:
; 0000 0879    {
; 0000 087A      nut=0;
	LDI  R30,LOW(0)
	STS  _nut,R30
; 0000 087B      while(ok==0){hienthi();}
_0x438:
	SBIC 0x6,2
	RJMP _0x43A
	CALL _hienthi
	RJMP _0x438
_0x43A:
; 0000 087C      return;
	RJMP _0x2000002
; 0000 087D    }
; 0000 087E   }
_0x435:
	RJMP _0x41E
; 0000 087F }
_0x2000002:
	LD   R17,Y+
	RET
;void hoclenh()
; 0000 0881 {
_hoclenh:
; 0000 0882   lenhIRcu=lenhIR=0;
	LDI  R30,LOW(0)
	STS  _lenhIR,R30
	STS  _lenhIRcu,R30
; 0000 0883   ghidulieu(0x20,0);
	CALL SUBOPT_0x9F
; 0000 0884   ghidulieu(0x21,0);
	LDI  R30,LOW(33)
	CALL SUBOPT_0xA0
; 0000 0885   ghidulieu(0x22,0);
	LDI  R30,LOW(34)
	CALL SUBOPT_0xA0
; 0000 0886   ghidulieu(0x23,0);
	LDI  R30,LOW(35)
	CALL SUBOPT_0xA0
; 0000 0887 
; 0000 0888   xuongchuluccaidat('C'-65,35,'I'-65,29,29,29,'U'-65,'P'-65);
	CALL SUBOPT_0xA1
	CALL SUBOPT_0xA2
	LDI  R30,LOW(20)
	ST   -Y,R30
	LDI  R30,LOW(15)
	ST   -Y,R30
	RCALL _xuongchuluccaidat
; 0000 0889   while(1)
_0x43B:
; 0000 088A   {
; 0000 088B       hienthi();
	CALL SUBOPT_0xA3
; 0000 088C       if(lenhIR!=lenhIRcu)
	BRNE PC+3
	JMP _0x43E
; 0000 088D       {
; 0000 088E          lenhIRcu=lenhIR;
	CALL SUBOPT_0xA4
; 0000 088F          ghidulieu(20,lenhIR);
	LDI  R30,LOW(20)
	CALL SUBOPT_0xA5
; 0000 0890          xuongchuluccaidat('C'-65,35,'I'-65,29,'D'-65,'O'-65,'W'-65,'N'-65);
	LDI  R30,LOW(3)
	ST   -Y,R30
	LDI  R30,LOW(14)
	ST   -Y,R30
	LDI  R30,LOW(22)
	ST   -Y,R30
	LDI  R30,LOW(13)
	ST   -Y,R30
	RCALL _xuongchuluccaidat
; 0000 0891          while(1)
_0x43F:
; 0000 0892          {
; 0000 0893              hienthi();
	CALL SUBOPT_0xA3
; 0000 0894               if(lenhIR!=lenhIRcu)
	BREQ _0x442
; 0000 0895                {
; 0000 0896                  lenhIRcu=lenhIR;
	CALL SUBOPT_0xA4
; 0000 0897                  ghidulieu(21,lenhIR);
	LDI  R30,LOW(21)
	CALL SUBOPT_0xA5
; 0000 0898                  xuongchuluccaidat('C'-65,35,'I'-65,29,29,29,'O'-65,'K'-65);
	CALL SUBOPT_0xA2
	LDI  R30,LOW(14)
	ST   -Y,R30
	LDI  R30,LOW(10)
	ST   -Y,R30
	RCALL _xuongchuluccaidat
; 0000 0899                   while(1)
_0x443:
; 0000 089A                    {
; 0000 089B                      hienthi();
	CALL SUBOPT_0xA3
; 0000 089C                      if(lenhIR!=lenhIRcu && lenhIR!=docds(20) )
	BREQ _0x447
	CALL SUBOPT_0xA6
	BRNE _0x448
_0x447:
	RJMP _0x446
_0x448:
; 0000 089D                        {
; 0000 089E                          lenhIRcu=lenhIR;
	CALL SUBOPT_0xA4
; 0000 089F                          ghidulieu(22,lenhIR);
	LDI  R30,LOW(22)
	CALL SUBOPT_0xA5
; 0000 08A0                          xuongchuluccaidat('C'-65,35,'I'-65,29,29,'O'-65,'F'-65,'F'-65);
	LDI  R30,LOW(29)
	ST   -Y,R30
	LDI  R30,LOW(14)
	ST   -Y,R30
	LDI  R30,LOW(5)
	ST   -Y,R30
	ST   -Y,R30
	RCALL _xuongchuluccaidat
; 0000 08A1                          while(1)
_0x449:
; 0000 08A2                          {
; 0000 08A3                             hienthi();
	CALL SUBOPT_0xA3
; 0000 08A4                             if(lenhIR!=lenhIRcu && lenhIR!=docds(20) && lenhIR!=docds(21))
	BREQ _0x44D
	CALL SUBOPT_0xA6
	BREQ _0x44D
	LDI  R30,LOW(21)
	ST   -Y,R30
	CALL _docds
	LDS  R26,_lenhIR
	CP   R30,R26
	BRNE _0x44E
_0x44D:
	RJMP _0x44C
_0x44E:
; 0000 08A5                             {
; 0000 08A6                               ghidulieu(23,lenhIR);
	LDI  R30,LOW(23)
	ST   -Y,R30
	LDS  R30,_lenhIR
	ST   -Y,R30
	CALL _ghidulieu
; 0000 08A7                               goto thoathoclenh;
	RJMP _0x44F
; 0000 08A8                             }
; 0000 08A9                          }
_0x44C:
	RJMP _0x449
; 0000 08AA 
; 0000 08AB                        }
; 0000 08AC                    }
_0x446:
	RJMP _0x443
; 0000 08AD                }
; 0000 08AE          }
_0x442:
	RJMP _0x43F
; 0000 08AF       }
; 0000 08B0   }
_0x43E:
	RJMP _0x43B
; 0000 08B1   thoathoclenh:;
_0x44F:
; 0000 08B2 }
	RET
;
;
;void laybaothuc_laybugio()
; 0000 08B6 {
_laybaothuc_laybugio:
; 0000 08B7  if(docdulieu(25)>59)ghidulieu(25,0);
	LDI  R30,LOW(25)
	CALL SUBOPT_0xA7
	BRLO _0x450
	LDI  R30,LOW(25)
	CALL SUBOPT_0xA0
; 0000 08B8  if(docdulieu(26)>59)ghidulieu(26,0);
_0x450:
	LDI  R30,LOW(26)
	CALL SUBOPT_0xA7
	BRLO _0x451
	LDI  R30,LOW(26)
	CALL SUBOPT_0xA0
; 0000 08B9  if(docdulieu(27)>59)ghidulieu(27,0);
_0x451:
	LDI  R30,LOW(27)
	CALL SUBOPT_0xA7
	BRLO _0x452
	LDI  R30,LOW(27)
	CALL SUBOPT_0xA0
; 0000 08BA  if(docdulieu(28)>1)ghidulieu(28,0);
_0x452:
	LDI  R30,LOW(28)
	CALL SUBOPT_0xA8
	BRLO _0x453
	LDI  R30,LOW(28)
	CALL SUBOPT_0xA0
; 0000 08BB  if(docdulieu(29)>31)ghidulieu(29,0);
_0x453:
	LDI  R30,LOW(29)
	ST   -Y,R30
	CALL _docdulieu
	CPI  R30,LOW(0x20)
	BRLO _0x454
	LDI  R30,LOW(29)
	CALL SUBOPT_0xA0
; 0000 08BC  if(docdulieu(30)>12)ghidulieu(30,0);
_0x454:
	LDI  R30,LOW(30)
	ST   -Y,R30
	CALL _docdulieu
	CPI  R30,LOW(0xD)
	BRLO _0x455
	LDI  R30,LOW(30)
	CALL SUBOPT_0xA0
; 0000 08BD  if(docdulieu(31)>1)ghidulieu(31,0);
_0x455:
	LDI  R30,LOW(31)
	CALL SUBOPT_0xA8
	BRLO _0x456
	LDI  R30,LOW(31)
	CALL SUBOPT_0xA0
; 0000 08BE  if(docdulieu(32)>1)ghidulieu(32,0);
_0x456:
	LDI  R30,LOW(32)
	CALL SUBOPT_0xA8
	BRLO _0x457
	CALL SUBOPT_0x9F
; 0000 08BF  if(docdulieu(33)>1)ghidulieu(33,1);
_0x457:
	LDI  R30,LOW(33)
	CALL SUBOPT_0xA8
	BRLO _0x458
	LDI  R30,LOW(33)
	ST   -Y,R30
	LDI  R30,LOW(1)
	ST   -Y,R30
	CALL _ghidulieu
; 0000 08C0  if(docdulieu(34)>1)ghidulieu(34,1);
_0x458:
	LDI  R30,LOW(34)
	CALL SUBOPT_0xA8
	BRLO _0x459
	LDI  R30,LOW(34)
	ST   -Y,R30
	LDI  R30,LOW(1)
	ST   -Y,R30
	CALL _ghidulieu
; 0000 08C1  giobt=docdulieu(25);
_0x459:
	LDI  R30,LOW(25)
	ST   -Y,R30
	CALL _docdulieu
	STS  _giobt,R30
; 0000 08C2  phutbt=docdulieu(26);
	LDI  R30,LOW(26)
	ST   -Y,R30
	CALL _docdulieu
	STS  _phutbt,R30
; 0000 08C3  bugio=docdulieu(27);
	LDI  R30,LOW(27)
	ST   -Y,R30
	CALL _docdulieu
	STS  _bugio,R30
; 0000 08C4  am=docdulieu(28);
	LDI  R30,LOW(28)
	ST   -Y,R30
	CALL _docdulieu
	STS  _am,R30
; 0000 08C5  ngaysinhnhat=docdulieu(29);
	LDI  R30,LOW(29)
	ST   -Y,R30
	CALL _docdulieu
	STS  _ngaysinhnhat,R30
; 0000 08C6  thangsinhnhat=docdulieu(30);
	LDI  R30,LOW(30)
	ST   -Y,R30
	CALL _docdulieu
	STS  _thangsinhnhat,R30
; 0000 08C7  trangthaibaothuc=docdulieu(31);
	LDI  R30,LOW(31)
	ST   -Y,R30
	CALL _docdulieu
	STS  _trangthaibaothuc,R30
; 0000 08C8  trangthaisinhnhat=docdulieu(32);
	LDI  R30,LOW(32)
	ST   -Y,R30
	CALL _docdulieu
	STS  _trangthaisinhnhat,R30
; 0000 08C9  trangthaiauto=docdulieu(33);
	LDI  R30,LOW(33)
	ST   -Y,R30
	CALL _docdulieu
	STS  _trangthaiauto,R30
; 0000 08CA  hieuungchuyengiay=docdulieu(34);
	LDI  R30,LOW(34)
	ST   -Y,R30
	CALL _docdulieu
	STS  _hieuungchuyengiay,R30
; 0000 08CB }
	RET
;
;//--------------------------------------------------------ham cai bao thuc------------------------//
;void caibaothuc()
; 0000 08CF {
_caibaothuc:
; 0000 08D0   unsigned char a,b,c;
; 0000 08D1   xuongchuluccaidatds('G'-65,'I'-65,43,29,11,giobt/10,giobt%10,11);
	CALL __SAVELOCR4
;	a -> R17
;	b -> R16
;	c -> R19
	LDI  R30,LOW(6)
	ST   -Y,R30
	LDI  R30,LOW(8)
	ST   -Y,R30
	LDI  R30,LOW(43)
	CALL SUBOPT_0xA9
	CALL SUBOPT_0xAA
	ST   -Y,R30
	CALL SUBOPT_0xAB
	CALL SUBOPT_0x9C
; 0000 08D2   ma[0][1]=chu['I'-65][0];
	__POINTW1FN _chu,128
	LPM  R0,Z
	__PUTBR0MN _ma,1
; 0000 08D3   ma[0][2]=chu[43][0];
	__POINTW1FN _chu,688
	LPM  R0,Z
	__PUTBR0MN _ma,2
; 0000 08D4   while(1)
_0x45A:
; 0000 08D5   {
; 0000 08D6     hienthi();
	CALL SUBOPT_0x7B
; 0000 08D7      if(up==0 || nut ==20)
	BREQ _0x45E
	LDS  R26,_nut
	CPI  R26,LOW(0x14)
	BREQ _0x45E
	RJMP _0x45D
_0x45E:
; 0000 08D8      {
; 0000 08D9       EIMSK=0x00;  // k cho phep ngat ngoai 0  <at328>
	CALL SUBOPT_0x83
; 0000 08DA       nut=0;
; 0000 08DB       while(up==0){hienthi();}
_0x460:
	SBIC 0x6,0
	RJMP _0x462
	CALL _hienthi
	RJMP _0x460
_0x462:
; 0000 08DC       giobt++;if(giobt>23)giobt=0;
	LDS  R30,_giobt
	SUBI R30,-LOW(1)
	STS  _giobt,R30
	LDS  R26,_giobt
	CPI  R26,LOW(0x18)
	BRLO _0x463
	LDI  R30,LOW(0)
	STS  _giobt,R30
; 0000 08DD        for(c=0;c<17;c++)
_0x463:
	LDI  R19,LOW(0)
_0x465:
	CPI  R19,17
	BRSH _0x466
; 0000 08DE           {
; 0000 08DF           ma[0][5]=so[giobt/10][17-c];ma[0][6]=so[giobt%10][17-c];
	CALL SUBOPT_0xAA
	CALL SUBOPT_0x33
	CALL SUBOPT_0x6B
	CALL SUBOPT_0x73
	CALL SUBOPT_0xAB
	CALL SUBOPT_0x33
	CALL SUBOPT_0x6B
	CALL SUBOPT_0x74
; 0000 08E0           for(b=0;b<3;b++){hienthi();}  // hien thi
_0x468:
	CPI  R16,3
	BRSH _0x469
	CALL _hienthi
	SUBI R16,-1
	RJMP _0x468
_0x469:
; 0000 08E1           for(a=16;a>1;a--){ma[a-1][5]=ma[a-2][5];ma[a-1][6]=ma[a-2][6];}
	LDI  R17,LOW(16)
_0x46B:
	CPI  R17,2
	BRLO _0x46C
	CALL SUBOPT_0x17
	CALL SUBOPT_0x6D
	CALL SUBOPT_0x75
	CALL SUBOPT_0x76
	MOVW R0,R30
	CALL SUBOPT_0x27
	CALL SUBOPT_0x30
	CALL SUBOPT_0x77
	SUBI R17,1
	RJMP _0x46B
_0x46C:
; 0000 08E2           }
	SUBI R19,-1
	RJMP _0x465
_0x466:
; 0000 08E3           EIMSK=0x01;  //  cho phep ngat ngoai 0  <at328>
	LDI  R30,LOW(1)
	OUT  0x1D,R30
; 0000 08E4      }
; 0000 08E5      if(down==0 || nut ==21)
_0x45D:
	CALL SUBOPT_0x7E
	BREQ _0x46E
	LDS  R26,_nut
	CPI  R26,LOW(0x15)
	BRNE _0x46D
_0x46E:
; 0000 08E6      {
; 0000 08E7       EIMSK=0x00;  // k cho phep ngat ngoai 0  <at328>
	CALL SUBOPT_0x83
; 0000 08E8       nut=0;
; 0000 08E9       while(down==0){hienthi();}
_0x470:
	SBIC 0x6,1
	RJMP _0x472
	CALL _hienthi
	RJMP _0x470
_0x472:
; 0000 08EA       if(giobt>0)giobt--;else giobt=23;
	LDS  R26,_giobt
	CPI  R26,LOW(0x1)
	BRLO _0x473
	LDS  R30,_giobt
	SUBI R30,LOW(1)
	RJMP _0x674
_0x473:
	LDI  R30,LOW(23)
_0x674:
	STS  _giobt,R30
; 0000 08EB       for(c=0;c<15;c++)
	LDI  R19,LOW(0)
_0x476:
	CPI  R19,15
	BRSH _0x477
; 0000 08EC           {
; 0000 08ED           ma[15][5]=so[giobt/10][c];ma[15][6]=so[giobt%10][c];
	CALL SUBOPT_0xAA
	CALL SUBOPT_0x6A
	MOVW R26,R30
	CALL SUBOPT_0x19
	CALL SUBOPT_0x7F
	CALL SUBOPT_0xAB
	CALL SUBOPT_0x6A
	MOVW R26,R30
	CALL SUBOPT_0x19
	CALL SUBOPT_0x85
; 0000 08EE           for(b=0;b<3;b++){hienthi();}  // hien thi
_0x479:
	CPI  R16,3
	BRSH _0x47A
	CALL _hienthi
	SUBI R16,-1
	RJMP _0x479
_0x47A:
; 0000 08EF           for(a=0;a<15;a++){ma[a][5]=ma[a+1][5];ma[a][6]=ma[a+1][6];}
	LDI  R17,LOW(0)
_0x47C:
	CPI  R17,15
	BRSH _0x47D
	CALL SUBOPT_0x17
	CALL SUBOPT_0x81
	CALL SUBOPT_0x76
	CALL SUBOPT_0x86
	SUBI R17,-1
	RJMP _0x47C
_0x47D:
; 0000 08F0           }
	SUBI R19,-1
	RJMP _0x476
_0x477:
; 0000 08F1       EIMSK=0x01;  // k cho phep ngat ngoai 0  <at328>
	LDI  R30,LOW(1)
	OUT  0x1D,R30
; 0000 08F2      }
; 0000 08F3      if(ok==0 || nut ==22)
_0x46D:
	CALL SUBOPT_0x82
	BREQ _0x47F
	LDS  R26,_nut
	CPI  R26,LOW(0x16)
	BREQ _0x47F
	RJMP _0x47E
_0x47F:
; 0000 08F4      {
; 0000 08F5         nut=0;
	LDI  R30,LOW(0)
	STS  _nut,R30
; 0000 08F6         while(up==0){hienthi();}
_0x481:
	SBIC 0x6,0
	RJMP _0x483
	CALL _hienthi
	RJMP _0x481
_0x483:
; 0000 08F7         xuongchuluccaidatds('P'-65,'H'-65,33,'T'-65,11,phutbt/10,phutbt%10,11);
	LDI  R30,LOW(15)
	ST   -Y,R30
	LDI  R30,LOW(7)
	ST   -Y,R30
	LDI  R30,LOW(33)
	ST   -Y,R30
	LDI  R30,LOW(19)
	ST   -Y,R30
	LDI  R30,LOW(11)
	ST   -Y,R30
	CALL SUBOPT_0xAC
	ST   -Y,R30
	CALL SUBOPT_0xAD
	CALL SUBOPT_0x9C
; 0000 08F8         ma[0][1]=0xFF;;
	LDI  R30,LOW(255)
	__PUTB1MN _ma,1
; 0000 08F9         ma[0][2]=0xF9;
	LDI  R30,LOW(249)
	__PUTB1MN _ma,2
; 0000 08FA         while(1)
_0x484:
; 0000 08FB           {
; 0000 08FC             hienthi();
	CALL SUBOPT_0x7B
; 0000 08FD             {
; 0000 08FE              if(up==0 || nut ==20)
	BREQ _0x488
	LDS  R26,_nut
	CPI  R26,LOW(0x14)
	BREQ _0x488
	RJMP _0x487
_0x488:
; 0000 08FF              {
; 0000 0900               EIMSK=0x00;  // k cho phep ngat ngoai 0  <at328>
	CALL SUBOPT_0x83
; 0000 0901               nut=0;
; 0000 0902               while(up==0){hienthi();}
_0x48A:
	SBIC 0x6,0
	RJMP _0x48C
	CALL _hienthi
	RJMP _0x48A
_0x48C:
; 0000 0903               phutbt++;if(phutbt>59)phutbt=0;
	LDS  R30,_phutbt
	SUBI R30,-LOW(1)
	STS  _phutbt,R30
	LDS  R26,_phutbt
	CPI  R26,LOW(0x3C)
	BRLO _0x48D
	LDI  R30,LOW(0)
	STS  _phutbt,R30
; 0000 0904                for(c=0;c<17;c++)
_0x48D:
	LDI  R19,LOW(0)
_0x48F:
	CPI  R19,17
	BRSH _0x490
; 0000 0905                   {
; 0000 0906                   ma[0][5]=so[phutbt/10][17-c];ma[0][6]=so[phutbt%10][17-c];
	CALL SUBOPT_0xAC
	CALL SUBOPT_0x33
	CALL SUBOPT_0x6B
	CALL SUBOPT_0x73
	CALL SUBOPT_0xAD
	CALL SUBOPT_0x33
	CALL SUBOPT_0x6B
	CALL SUBOPT_0x74
; 0000 0907                   for(b=0;b<3;b++){hienthi();}  // hien thi
_0x492:
	CPI  R16,3
	BRSH _0x493
	CALL _hienthi
	SUBI R16,-1
	RJMP _0x492
_0x493:
; 0000 0908                   for(a=16;a>1;a--){ma[a-1][5]=ma[a-2][5];ma[a-1][6]=ma[a-2][6];}
	LDI  R17,LOW(16)
_0x495:
	CPI  R17,2
	BRLO _0x496
	CALL SUBOPT_0x17
	CALL SUBOPT_0x6D
	CALL SUBOPT_0x75
	CALL SUBOPT_0x76
	MOVW R0,R30
	CALL SUBOPT_0x27
	CALL SUBOPT_0x30
	CALL SUBOPT_0x77
	SUBI R17,1
	RJMP _0x495
_0x496:
; 0000 0909                   }
	SUBI R19,-1
	RJMP _0x48F
_0x490:
; 0000 090A                EIMSK=0x01;  // cho phep ngat ngoai 0  <at328>
	LDI  R30,LOW(1)
	OUT  0x1D,R30
; 0000 090B              }
; 0000 090C              if(down==0 || nut ==21)
_0x487:
	CALL SUBOPT_0x7E
	BREQ _0x498
	LDS  R26,_nut
	CPI  R26,LOW(0x15)
	BRNE _0x497
_0x498:
; 0000 090D              {
; 0000 090E               EIMSK=0x00;  // k cho phep ngat ngoai 0  <at328>
	CALL SUBOPT_0x83
; 0000 090F               nut=0;
; 0000 0910               while(down==0){hienthi();}
_0x49A:
	SBIC 0x6,1
	RJMP _0x49C
	CALL _hienthi
	RJMP _0x49A
_0x49C:
; 0000 0911               if(phutbt>0)phutbt--;else phutbt=59;
	LDS  R26,_phutbt
	CPI  R26,LOW(0x1)
	BRLO _0x49D
	LDS  R30,_phutbt
	SUBI R30,LOW(1)
	RJMP _0x675
_0x49D:
	LDI  R30,LOW(59)
_0x675:
	STS  _phutbt,R30
; 0000 0912               for(c=0;c<15;c++)
	LDI  R19,LOW(0)
_0x4A0:
	CPI  R19,15
	BRSH _0x4A1
; 0000 0913                   {
; 0000 0914                   ma[15][5]=so[phutbt/10][c];ma[15][6]=so[phutbt%10][c];
	CALL SUBOPT_0xAC
	CALL SUBOPT_0x6A
	MOVW R26,R30
	CALL SUBOPT_0x19
	CALL SUBOPT_0x7F
	CALL SUBOPT_0xAD
	CALL SUBOPT_0x6A
	MOVW R26,R30
	CALL SUBOPT_0x19
	CALL SUBOPT_0x85
; 0000 0915                   for(b=0;b<3;b++){hienthi();}  // hien thi
_0x4A3:
	CPI  R16,3
	BRSH _0x4A4
	CALL _hienthi
	SUBI R16,-1
	RJMP _0x4A3
_0x4A4:
; 0000 0916                   for(a=0;a<15;a++){ma[a][5]=ma[a+1][5];ma[a][6]=ma[a+1][6];}
	LDI  R17,LOW(0)
_0x4A6:
	CPI  R17,15
	BRSH _0x4A7
	CALL SUBOPT_0x17
	CALL SUBOPT_0x81
	CALL SUBOPT_0x76
	CALL SUBOPT_0x86
	SUBI R17,-1
	RJMP _0x4A6
_0x4A7:
; 0000 0917                   }
	SUBI R19,-1
	RJMP _0x4A0
_0x4A1:
; 0000 0918               EIMSK=0x01;  // cho phep ngat ngoai 0  <at328>
	LDI  R30,LOW(1)
	OUT  0x1D,R30
; 0000 0919              }
; 0000 091A              if(ok==0 || nut ==22)
_0x497:
	CALL SUBOPT_0x82
	BREQ _0x4A9
	LDS  R26,_nut
	CPI  R26,LOW(0x16)
	BRNE _0x4A8
_0x4A9:
; 0000 091B              {
; 0000 091C                 EIMSK=0x00;  // k cho phep ngat ngoai 0  <at328>
	CALL SUBOPT_0x83
; 0000 091D                 nut=0;
; 0000 091E                 while(up==0){hienthi();}
_0x4AB:
	SBIC 0x6,0
	RJMP _0x4AD
	CALL _hienthi
	RJMP _0x4AB
_0x4AD:
; 0000 091F                 ghidulieu(25,giobt);
	LDI  R30,LOW(25)
	ST   -Y,R30
	LDS  R30,_giobt
	ST   -Y,R30
	CALL _ghidulieu
; 0000 0920                 ghidulieu(26,phutbt);
	LDI  R30,LOW(26)
	ST   -Y,R30
	LDS  R30,_phutbt
	ST   -Y,R30
	CALL _ghidulieu
; 0000 0921                 EIMSK=0x01;  //cho phep ngat ngoai 0  <at328>
	LDI  R30,LOW(1)
	OUT  0x1D,R30
; 0000 0922                 return;
	RJMP _0x2000001
; 0000 0923              }
; 0000 0924             }
_0x4A8:
; 0000 0925           }
	RJMP _0x484
; 0000 0926     }
; 0000 0927  }
_0x47E:
	RJMP _0x45A
; 0000 0928  }
;
;//---------------------ham kiem tra bao thuc---------------//
; void tinhbaothuc()
; 0000 092C  {
_tinhbaothuc:
; 0000 092D   if(gio==giobt && phut==phutbt && trangthaibaothuc==1 )
	LDS  R30,_giobt
	CP   R30,R9
	BRNE _0x4AF
	LDS  R30,_phutbt
	CP   R30,R14
	BRNE _0x4AF
	LDS  R26,_trangthaibaothuc
	CPI  R26,LOW(0x1)
	BREQ _0x4B0
_0x4AF:
	RJMP _0x4AE
_0x4B0:
; 0000 092E   {
; 0000 092F       if(cobaosinhnhat==0)
	LDS  R30,_cobaosinhnhat
	CPI  R30,0
	BRNE _0x4B1
; 0000 0930       {
; 0000 0931        chucmungbuoisang();
	CALL _chucmungbuoisang
; 0000 0932        delay_ms(500);
	CALL SUBOPT_0xAE
; 0000 0933        chucmungbuoisang();
	CALL _chucmungbuoisang
; 0000 0934       }
; 0000 0935       else
	RJMP _0x4B2
_0x4B1:
; 0000 0936       {
; 0000 0937        chucmungsinhnhat();
	CALL _chucmungsinhnhat
; 0000 0938        delay_ms(500);
	CALL SUBOPT_0xAE
; 0000 0939        chucmungsinhnhat();
	CALL _chucmungsinhnhat
; 0000 093A       }
_0x4B2:
; 0000 093B       laythoigiantrongds3();
	RCALL _laythoigiantrongds3
; 0000 093C   }
; 0000 093D  }
_0x4AE:
	RET
;
;
;//----------------------------------ham cai bu gio--------------------------------//
; void caibugio()
; 0000 0942  {
_caibugio:
; 0000 0943   unsigned char a,b,c;
; 0000 0944   xuongchuluccaidatds('B'-65,46,29,29,13-am,bugio/10,bugio%10,11);
	CALL __SAVELOCR4
;	a -> R17
;	b -> R16
;	c -> R19
	CALL SUBOPT_0xAF
	CALL SUBOPT_0xB0
	CALL SUBOPT_0xB1
	CALL SUBOPT_0xB2
	CALL SUBOPT_0x9C
; 0000 0945   ma[0][1]=chu[46][0];
	CALL SUBOPT_0xB3
; 0000 0946   ma[0][2]=0xFF;;
; 0000 0947   while(1)
_0x4B3:
; 0000 0948   {
; 0000 0949     hienthi();
	CALL SUBOPT_0x7B
; 0000 094A      if(up==0 || nut ==20)
	BREQ _0x4B7
	LDS  R26,_nut
	CPI  R26,LOW(0x14)
	BREQ _0x4B7
	RJMP _0x4B6
_0x4B7:
; 0000 094B      {
; 0000 094C       EIMSK=0x00;  // k cho phep ngat ngoai 0  <at328>
	CALL SUBOPT_0x83
; 0000 094D       nut=0;
; 0000 094E       while(up==0){hienthi();}
_0x4B9:
	SBIC 0x6,0
	RJMP _0x4BB
	CALL _hienthi
	RJMP _0x4B9
_0x4BB:
; 0000 094F       if(bugio<59)
	LDS  R26,_bugio
	CPI  R26,LOW(0x3B)
	BRSH _0x4BC
; 0000 0950       {
; 0000 0951           bugio++;
	LDS  R30,_bugio
	SUBI R30,-LOW(1)
	STS  _bugio,R30
; 0000 0952           for(c=0;c<17;c++)
	LDI  R19,LOW(0)
_0x4BE:
	CPI  R19,17
	BRSH _0x4BF
; 0000 0953           {
; 0000 0954           ma[0][5]=so[bugio/10][17-c];ma[0][6]=so[bugio%10][17-c];
	LDS  R26,_bugio
	CALL SUBOPT_0x14
	CALL SUBOPT_0x33
	CALL SUBOPT_0x6B
	CALL SUBOPT_0x73
	LDS  R26,_bugio
	CALL SUBOPT_0x15
	CALL SUBOPT_0x33
	CALL SUBOPT_0x6B
	CALL SUBOPT_0x74
; 0000 0955           for(b=0;b<3;b++){hienthi();}  // hien thi
_0x4C1:
	CPI  R16,3
	BRSH _0x4C2
	CALL _hienthi
	SUBI R16,-1
	RJMP _0x4C1
_0x4C2:
; 0000 0956           for(a=16;a>1;a--){ma[a-1][5]=ma[a-2][5];ma[a-1][6]=ma[a-2][6];}
	LDI  R17,LOW(16)
_0x4C4:
	CPI  R17,2
	BRLO _0x4C5
	CALL SUBOPT_0x17
	CALL SUBOPT_0x6D
	CALL SUBOPT_0x75
	CALL SUBOPT_0x76
	MOVW R0,R30
	CALL SUBOPT_0x27
	CALL SUBOPT_0x30
	CALL SUBOPT_0x77
	SUBI R17,1
	RJMP _0x4C4
_0x4C5:
; 0000 0957           }
	SUBI R19,-1
	RJMP _0x4BE
_0x4BF:
; 0000 0958       }
; 0000 0959       else
	RJMP _0x4C6
_0x4BC:
; 0000 095A       {
; 0000 095B          bugio=0; am=1-am;
	LDI  R30,LOW(0)
	STS  _bugio,R30
	CALL SUBOPT_0xB0
	CALL SUBOPT_0xB4
	STS  _am,R30
; 0000 095C          xuongchuluccaidatds('B'-65,46,29,29,13-am,bugio/10,bugio%10,11);
	CALL SUBOPT_0xAF
	CALL SUBOPT_0xB0
	CALL SUBOPT_0xB1
	CALL SUBOPT_0xB2
	CALL SUBOPT_0x9C
; 0000 095D          ma[0][1]=chu[46][0];
	CALL SUBOPT_0xB3
; 0000 095E          ma[0][2]=0xFF;;
; 0000 095F       }
_0x4C6:
; 0000 0960       EIMSK=0x01;  // cho phep ngat ngoai 0  <at328>
	LDI  R30,LOW(1)
	OUT  0x1D,R30
; 0000 0961      }
; 0000 0962 
; 0000 0963     if(down==0 || nut ==21)
_0x4B6:
	CALL SUBOPT_0x7E
	BREQ _0x4C8
	LDS  R26,_nut
	CPI  R26,LOW(0x15)
	BREQ _0x4C8
	RJMP _0x4C7
_0x4C8:
; 0000 0964      {
; 0000 0965       EIMSK=0x00;  // cho phep ngat ngoai 0  <at328>
	CALL SUBOPT_0x83
; 0000 0966       nut=0;
; 0000 0967       while(down==0){hienthi();}
_0x4CA:
	SBIC 0x6,1
	RJMP _0x4CC
	CALL _hienthi
	RJMP _0x4CA
_0x4CC:
; 0000 0968       if(bugio>0)
	LDS  R26,_bugio
	CPI  R26,LOW(0x1)
	BRLO _0x4CD
; 0000 0969       {
; 0000 096A           bugio--;
	LDS  R30,_bugio
	SUBI R30,LOW(1)
	STS  _bugio,R30
; 0000 096B           for(c=0;c<15;c++)
	LDI  R19,LOW(0)
_0x4CF:
	CPI  R19,15
	BRSH _0x4D0
; 0000 096C               {
; 0000 096D               ma[15][5]=so[bugio/10][c];ma[15][6]=so[bugio%10][c];
	LDS  R26,_bugio
	RCALL SUBOPT_0x14
	CALL SUBOPT_0x6A
	MOVW R26,R30
	RCALL SUBOPT_0x19
	CALL SUBOPT_0x7F
	LDS  R26,_bugio
	RCALL SUBOPT_0x15
	CALL SUBOPT_0x6A
	MOVW R26,R30
	RCALL SUBOPT_0x19
	CALL SUBOPT_0x85
; 0000 096E               for(b=0;b<3;b++){hienthi();}  // hien thi
_0x4D2:
	CPI  R16,3
	BRSH _0x4D3
	CALL _hienthi
	SUBI R16,-1
	RJMP _0x4D2
_0x4D3:
; 0000 096F               for(a=0;a<15;a++){ma[a][5]=ma[a+1][5];ma[a][6]=ma[a+1][6];}
	LDI  R17,LOW(0)
_0x4D5:
	CPI  R17,15
	BRSH _0x4D6
	RCALL SUBOPT_0x17
	CALL SUBOPT_0x81
	CALL SUBOPT_0x76
	CALL SUBOPT_0x86
	SUBI R17,-1
	RJMP _0x4D5
_0x4D6:
; 0000 0970               }
	SUBI R19,-1
	RJMP _0x4CF
_0x4D0:
; 0000 0971       }
; 0000 0972       else
	RJMP _0x4D7
_0x4CD:
; 0000 0973       {
; 0000 0974          bugio=59; am=1-am;
	LDI  R30,LOW(59)
	STS  _bugio,R30
	CALL SUBOPT_0xB0
	CALL SUBOPT_0xB4
	STS  _am,R30
; 0000 0975          xuongchuluccaidatds('B'-65,46,29,29,13-am,bugio/10,bugio%10,11);
	CALL SUBOPT_0xAF
	CALL SUBOPT_0xB0
	CALL SUBOPT_0xB1
	CALL SUBOPT_0xB2
	CALL SUBOPT_0x9C
; 0000 0976          ma[0][1]=chu[46][0];
	CALL SUBOPT_0xB3
; 0000 0977          ma[0][2]=0xFF;;
; 0000 0978       }
_0x4D7:
; 0000 0979       EIMSK=0x01;  //  cho phep ngat ngoai 0  <at328>
	LDI  R30,LOW(1)
	OUT  0x1D,R30
; 0000 097A      }
; 0000 097B 
; 0000 097C     if(ok==0 || nut ==22)
_0x4C7:
	CALL SUBOPT_0x82
	BREQ _0x4D9
	LDS  R26,_nut
	CPI  R26,LOW(0x16)
	BRNE _0x4D8
_0x4D9:
; 0000 097D      {
; 0000 097E       EIMSK=0x00;  // k cho phep ngat ngoai 0  <at328>
	CALL SUBOPT_0x83
; 0000 097F       nut=0;
; 0000 0980       ghidulieu(28,am);
	LDI  R30,LOW(28)
	ST   -Y,R30
	LDS  R30,_am
	ST   -Y,R30
	CALL _ghidulieu
; 0000 0981       ghidulieu(27,bugio);
	LDI  R30,LOW(27)
	ST   -Y,R30
	LDS  R30,_bugio
	ST   -Y,R30
	CALL _ghidulieu
; 0000 0982       while(ok==0){hienthi();}
_0x4DB:
	SBIC 0x6,2
	RJMP _0x4DD
	CALL _hienthi
	RJMP _0x4DB
_0x4DD:
; 0000 0983       return;
	RJMP _0x2000001
; 0000 0984       EIMSK=0x01;  // k cho phep ngat ngoai 0  <at328>
; 0000 0985      }
; 0000 0986   }
_0x4D8:
	RJMP _0x4B3
; 0000 0987  }
;
;//--------------------------Kiem tra bu gio-----------------------------//
; void tinhbugio()
; 0000 098B  {
_tinhbugio:
; 0000 098C   if(gio==3 && phut == 4 && giay ==5)
	LDI  R30,LOW(3)
	CP   R30,R9
	BRNE _0x4DF
	LDI  R30,LOW(4)
	CP   R30,R14
	BRNE _0x4DF
	LDI  R30,LOW(5)
	CP   R30,R13
	BREQ _0x4E0
_0x4DF:
	RJMP _0x4DE
_0x4E0:
; 0000 098D   {
; 0000 098E    if(am==0)
	LDS  R30,_am
	CPI  R30,0
	BRNE _0x4E1
; 0000 098F    {
; 0000 0990      if((giay+bugio)>59)
	CALL SUBOPT_0xB5
	SBIW R26,60
	BRLT _0x4E2
; 0000 0991      {
; 0000 0992       giay=(giay+bugio)-59;
	CALL SUBOPT_0xB5
	LDI  R30,LOW(59)
	LDI  R31,HIGH(59)
	RCALL SUBOPT_0x1A
	MOV  R13,R30
; 0000 0993       phut++;
	INC  R14
; 0000 0994      }
; 0000 0995      else giay=giay+bugio;
	RJMP _0x4E3
_0x4E2:
	LDS  R30,_bugio
	ADD  R13,R30
; 0000 0996    }
_0x4E3:
; 0000 0997    else if(am==1)
	RJMP _0x4E4
_0x4E1:
	LDS  R26,_am
	CPI  R26,LOW(0x1)
	BRNE _0x4E5
; 0000 0998    {
; 0000 0999      if(bugio>giay)
	LDS  R26,_bugio
	CP   R13,R26
	BRSH _0x4E6
; 0000 099A      {
; 0000 099B       giay=59-(bugio-giay);
	CLR  R27
	MOV  R30,R13
	LDI  R31,0
	RCALL SUBOPT_0x1A
	LDI  R26,LOW(59)
	LDI  R27,HIGH(59)
	RCALL SUBOPT_0x1A
	MOV  R13,R30
; 0000 099C       phut--;
	DEC  R14
; 0000 099D      }
; 0000 099E      else giay=giay-bugio;
	RJMP _0x4E7
_0x4E6:
	MOV  R26,R13
	CLR  R27
	LDS  R30,_bugio
	LDI  R31,0
	RCALL SUBOPT_0x1A
	MOV  R13,R30
; 0000 099F    }
_0x4E7:
; 0000 09A0    ghids(0x00,giay);
_0x4E5:
_0x4E4:
	LDI  R30,LOW(0)
	ST   -Y,R30
	ST   -Y,R13
	CALL _ghids
; 0000 09A1    ghids(0x01,phut);
	LDI  R30,LOW(1)
	ST   -Y,R30
	ST   -Y,R14
	CALL _ghids
; 0000 09A2   }
; 0000 09A3  }
_0x4DE:
	RET
;
;//-----------------------------------------------Cai sinh nhat----------------------
;void caisinhnhat()
; 0000 09A7 {
_caisinhnhat:
; 0000 09A8   unsigned char a,b,c;
; 0000 09A9   xuongchuluccaidatds('N'-65,'G'-65,35,'Y'-65,11,ngaysinhnhat/10,ngaysinhnhat%10,11);
	CALL __SAVELOCR4
;	a -> R17
;	b -> R16
;	c -> R19
	LDI  R30,LOW(13)
	ST   -Y,R30
	LDI  R30,LOW(6)
	ST   -Y,R30
	LDI  R30,LOW(35)
	ST   -Y,R30
	LDI  R30,LOW(24)
	ST   -Y,R30
	LDI  R30,LOW(11)
	ST   -Y,R30
	CALL SUBOPT_0xB6
	ST   -Y,R30
	CALL SUBOPT_0xB7
	CALL SUBOPT_0x9C
; 0000 09AA   ma[0][2]=chu[35][0];
	__POINTW1FN _chu,560
	LPM  R0,Z
	__PUTBR0MN _ma,2
; 0000 09AB   ma[0][1]=0xff;
	LDI  R30,LOW(255)
	__PUTB1MN _ma,1
; 0000 09AC   while(1)
_0x4E8:
; 0000 09AD   {
; 0000 09AE     hienthi();
	CALL SUBOPT_0x7B
; 0000 09AF      if(up==0 || nut ==20)
	BREQ _0x4EC
	LDS  R26,_nut
	CPI  R26,LOW(0x14)
	BREQ _0x4EC
	RJMP _0x4EB
_0x4EC:
; 0000 09B0      {
; 0000 09B1       EIMSK=0x00;  // k cho phep ngat ngoai 0  <at328>
	CALL SUBOPT_0x83
; 0000 09B2       nut=0;
; 0000 09B3       while(up==0){hienthi();}
_0x4EE:
	SBIC 0x6,0
	RJMP _0x4F0
	CALL _hienthi
	RJMP _0x4EE
_0x4F0:
; 0000 09B4       ngaysinhnhat++;if(ngaysinhnhat>31)ngaysinhnhat=0;
	LDS  R30,_ngaysinhnhat
	SUBI R30,-LOW(1)
	STS  _ngaysinhnhat,R30
	LDS  R26,_ngaysinhnhat
	CPI  R26,LOW(0x20)
	BRLO _0x4F1
	LDI  R30,LOW(0)
	STS  _ngaysinhnhat,R30
; 0000 09B5        for(c=0;c<17;c++)
_0x4F1:
	LDI  R19,LOW(0)
_0x4F3:
	CPI  R19,17
	BRSH _0x4F4
; 0000 09B6           {
; 0000 09B7           ma[0][5]=so[ngaysinhnhat/10][17-c];ma[0][6]=so[ngaysinhnhat%10][17-c];
	CALL SUBOPT_0xB6
	RCALL SUBOPT_0x33
	CALL SUBOPT_0x6B
	CALL SUBOPT_0x73
	CALL SUBOPT_0xB7
	RCALL SUBOPT_0x33
	CALL SUBOPT_0x6B
	CALL SUBOPT_0x74
; 0000 09B8           for(b=0;b<3;b++){hienthi();}  // hien thi
_0x4F6:
	CPI  R16,3
	BRSH _0x4F7
	CALL _hienthi
	SUBI R16,-1
	RJMP _0x4F6
_0x4F7:
; 0000 09B9           for(a=16;a>1;a--){ma[a-1][5]=ma[a-2][5];ma[a-1][6]=ma[a-2][6];}
	LDI  R17,LOW(16)
_0x4F9:
	CPI  R17,2
	BRLO _0x4FA
	RCALL SUBOPT_0x17
	CALL SUBOPT_0x6D
	CALL SUBOPT_0x75
	CALL SUBOPT_0x76
	MOVW R0,R30
	RCALL SUBOPT_0x27
	RCALL SUBOPT_0x30
	CALL SUBOPT_0x77
	SUBI R17,1
	RJMP _0x4F9
_0x4FA:
; 0000 09BA           }
	SUBI R19,-1
	RJMP _0x4F3
_0x4F4:
; 0000 09BB        EIMSK=0x01;  //  cho phep ngat ngoai 0  <at328>
	LDI  R30,LOW(1)
	OUT  0x1D,R30
; 0000 09BC      }
; 0000 09BD      if(down==0 || nut ==21)
_0x4EB:
	CALL SUBOPT_0x7E
	BREQ _0x4FC
	LDS  R26,_nut
	CPI  R26,LOW(0x15)
	BRNE _0x4FB
_0x4FC:
; 0000 09BE      {
; 0000 09BF       EIMSK=0x00;  // k cho phep ngat ngoai 0  <at328>
	CALL SUBOPT_0x83
; 0000 09C0       nut=0;
; 0000 09C1       while(down==0){hienthi();}
_0x4FE:
	SBIC 0x6,1
	RJMP _0x500
	CALL _hienthi
	RJMP _0x4FE
_0x500:
; 0000 09C2       if(ngaysinhnhat>0)ngaysinhnhat--;else ngaysinhnhat=31;
	LDS  R26,_ngaysinhnhat
	CPI  R26,LOW(0x1)
	BRLO _0x501
	LDS  R30,_ngaysinhnhat
	SUBI R30,LOW(1)
	RJMP _0x676
_0x501:
	LDI  R30,LOW(31)
_0x676:
	STS  _ngaysinhnhat,R30
; 0000 09C3       for(c=0;c<15;c++)
	LDI  R19,LOW(0)
_0x504:
	CPI  R19,15
	BRSH _0x505
; 0000 09C4           {
; 0000 09C5           ma[15][5]=so[ngaysinhnhat/10][c];ma[15][6]=so[ngaysinhnhat%10][c];
	CALL SUBOPT_0xB6
	CALL SUBOPT_0x6A
	MOVW R26,R30
	RCALL SUBOPT_0x19
	CALL SUBOPT_0x7F
	CALL SUBOPT_0xB7
	CALL SUBOPT_0x6A
	MOVW R26,R30
	RCALL SUBOPT_0x19
	CALL SUBOPT_0x85
; 0000 09C6           for(b=0;b<3;b++){hienthi();}  // hien thi
_0x507:
	CPI  R16,3
	BRSH _0x508
	CALL _hienthi
	SUBI R16,-1
	RJMP _0x507
_0x508:
; 0000 09C7           for(a=0;a<15;a++){ma[a][5]=ma[a+1][5];ma[a][6]=ma[a+1][6];}
	LDI  R17,LOW(0)
_0x50A:
	CPI  R17,15
	BRSH _0x50B
	RCALL SUBOPT_0x17
	CALL SUBOPT_0x81
	CALL SUBOPT_0x76
	CALL SUBOPT_0x86
	SUBI R17,-1
	RJMP _0x50A
_0x50B:
; 0000 09C8           }
	SUBI R19,-1
	RJMP _0x504
_0x505:
; 0000 09C9       EIMSK=0x01;  //cho phep ngat ngoai 0  <at328>
	LDI  R30,LOW(1)
	OUT  0x1D,R30
; 0000 09CA      }
; 0000 09CB      if(ok==0 || nut ==22)
_0x4FB:
	CALL SUBOPT_0x82
	BREQ _0x50D
	LDS  R26,_nut
	CPI  R26,LOW(0x16)
	BREQ _0x50D
	RJMP _0x50C
_0x50D:
; 0000 09CC      {
; 0000 09CD         nut=0;
	LDI  R30,LOW(0)
	STS  _nut,R30
; 0000 09CE         while(up==0){hienthi();}
_0x50F:
	SBIC 0x6,0
	RJMP _0x511
	CALL _hienthi
	RJMP _0x50F
_0x511:
; 0000 09CF         xuongchuluccaidatds('T'-65,'H'-65,36,'G'-65,11,thangsinhnhat/10,thangsinhnhat%10,11);
	LDI  R30,LOW(19)
	ST   -Y,R30
	LDI  R30,LOW(7)
	ST   -Y,R30
	LDI  R30,LOW(36)
	ST   -Y,R30
	LDI  R30,LOW(6)
	ST   -Y,R30
	LDI  R30,LOW(11)
	ST   -Y,R30
	CALL SUBOPT_0xB8
	ST   -Y,R30
	CALL SUBOPT_0xB9
	CALL SUBOPT_0x9C
; 0000 09D0         ma[0][1]=0xff;
	LDI  R30,LOW(255)
	__PUTB1MN _ma,1
; 0000 09D1         ma[0][2]=chu[36][0];
	__POINTW1FN _chu,576
	LPM  R0,Z
	__PUTBR0MN _ma,2
; 0000 09D2         while(1)
_0x512:
; 0000 09D3           {
; 0000 09D4             hienthi();
	CALL SUBOPT_0x7B
; 0000 09D5             {
; 0000 09D6              if(up==0 || nut ==20)
	BREQ _0x516
	LDS  R26,_nut
	CPI  R26,LOW(0x14)
	BREQ _0x516
	RJMP _0x515
_0x516:
; 0000 09D7              {
; 0000 09D8               EIMSK=0x00;  // k cho phep ngat ngoai 0  <at328>
	CALL SUBOPT_0x83
; 0000 09D9               nut=0;
; 0000 09DA               while(up==0){hienthi();}
_0x518:
	SBIC 0x6,0
	RJMP _0x51A
	CALL _hienthi
	RJMP _0x518
_0x51A:
; 0000 09DB               thangsinhnhat++;if(thangsinhnhat>12)thangsinhnhat=0;
	LDS  R30,_thangsinhnhat
	SUBI R30,-LOW(1)
	STS  _thangsinhnhat,R30
	LDS  R26,_thangsinhnhat
	CPI  R26,LOW(0xD)
	BRLO _0x51B
	LDI  R30,LOW(0)
	STS  _thangsinhnhat,R30
; 0000 09DC                for(c=0;c<17;c++)
_0x51B:
	LDI  R19,LOW(0)
_0x51D:
	CPI  R19,17
	BRSH _0x51E
; 0000 09DD                   {
; 0000 09DE                   ma[0][5]=so[thangsinhnhat/10][17-c];ma[0][6]=so[thangsinhnhat%10][17-c];
	CALL SUBOPT_0xB8
	RCALL SUBOPT_0x33
	CALL SUBOPT_0x6B
	CALL SUBOPT_0x73
	CALL SUBOPT_0xB9
	RCALL SUBOPT_0x33
	CALL SUBOPT_0x6B
	CALL SUBOPT_0x74
; 0000 09DF                   for(b=0;b<3;b++){hienthi();}  // hien thi
_0x520:
	CPI  R16,3
	BRSH _0x521
	CALL _hienthi
	SUBI R16,-1
	RJMP _0x520
_0x521:
; 0000 09E0                   for(a=16;a>1;a--){ma[a-1][5]=ma[a-2][5];ma[a-1][6]=ma[a-2][6];}
	LDI  R17,LOW(16)
_0x523:
	CPI  R17,2
	BRLO _0x524
	RCALL SUBOPT_0x17
	CALL SUBOPT_0x6D
	CALL SUBOPT_0x75
	CALL SUBOPT_0x76
	MOVW R0,R30
	RCALL SUBOPT_0x27
	RCALL SUBOPT_0x30
	CALL SUBOPT_0x77
	SUBI R17,1
	RJMP _0x523
_0x524:
; 0000 09E1                   }
	SUBI R19,-1
	RJMP _0x51D
_0x51E:
; 0000 09E2                EIMSK=0x01;  // cho phep ngat ngoai 0  <at328>
	LDI  R30,LOW(1)
	OUT  0x1D,R30
; 0000 09E3              }
; 0000 09E4              if(down==0 || nut ==21)
_0x515:
	CALL SUBOPT_0x7E
	BREQ _0x526
	LDS  R26,_nut
	CPI  R26,LOW(0x15)
	BRNE _0x525
_0x526:
; 0000 09E5              {
; 0000 09E6               EIMSK=0x00;  // k cho phep ngat ngoai 0  <at328>
	CALL SUBOPT_0x83
; 0000 09E7               nut=0;
; 0000 09E8               while(down==0){hienthi();}
_0x528:
	SBIC 0x6,1
	RJMP _0x52A
	CALL _hienthi
	RJMP _0x528
_0x52A:
; 0000 09E9               if(thangsinhnhat>0)thangsinhnhat--;else thangsinhnhat=12;
	LDS  R26,_thangsinhnhat
	CPI  R26,LOW(0x1)
	BRLO _0x52B
	LDS  R30,_thangsinhnhat
	SUBI R30,LOW(1)
	RJMP _0x677
_0x52B:
	LDI  R30,LOW(12)
_0x677:
	STS  _thangsinhnhat,R30
; 0000 09EA               for(c=0;c<15;c++)
	LDI  R19,LOW(0)
_0x52E:
	CPI  R19,15
	BRSH _0x52F
; 0000 09EB                   {
; 0000 09EC                   ma[15][5]=so[thangsinhnhat/10][c];ma[15][6]=so[thangsinhnhat%10][c];
	CALL SUBOPT_0xB8
	CALL SUBOPT_0x6A
	MOVW R26,R30
	RCALL SUBOPT_0x19
	CALL SUBOPT_0x7F
	CALL SUBOPT_0xB9
	CALL SUBOPT_0x6A
	MOVW R26,R30
	RCALL SUBOPT_0x19
	CALL SUBOPT_0x85
; 0000 09ED                   for(b=0;b<3;b++){hienthi();}  // hien thi
_0x531:
	CPI  R16,3
	BRSH _0x532
	CALL _hienthi
	SUBI R16,-1
	RJMP _0x531
_0x532:
; 0000 09EE                   for(a=0;a<15;a++){ma[a][5]=ma[a+1][5];ma[a][6]=ma[a+1][6];}
	LDI  R17,LOW(0)
_0x534:
	CPI  R17,15
	BRSH _0x535
	RCALL SUBOPT_0x17
	CALL SUBOPT_0x81
	CALL SUBOPT_0x76
	CALL SUBOPT_0x86
	SUBI R17,-1
	RJMP _0x534
_0x535:
; 0000 09EF                   }
	SUBI R19,-1
	RJMP _0x52E
_0x52F:
; 0000 09F0               EIMSK=0x01;  // cho phep ngat ngoai 0  <at328>
	LDI  R30,LOW(1)
	OUT  0x1D,R30
; 0000 09F1              }
; 0000 09F2              if(ok==0 || nut ==22)
_0x525:
	CALL SUBOPT_0x82
	BREQ _0x537
	LDS  R26,_nut
	CPI  R26,LOW(0x16)
	BRNE _0x536
_0x537:
; 0000 09F3              {
; 0000 09F4                 EIMSK=0x00;  // k cho phep ngat ngoai 0  <at328>
	CALL SUBOPT_0x83
; 0000 09F5                 nut=0;
; 0000 09F6                 while(up==0){hienthi();}
_0x539:
	SBIC 0x6,0
	RJMP _0x53B
	CALL _hienthi
	RJMP _0x539
_0x53B:
; 0000 09F7                 ghidulieu(29,ngaysinhnhat);
	LDI  R30,LOW(29)
	ST   -Y,R30
	LDS  R30,_ngaysinhnhat
	ST   -Y,R30
	CALL _ghidulieu
; 0000 09F8                 ghidulieu(30,thangsinhnhat);
	LDI  R30,LOW(30)
	ST   -Y,R30
	LDS  R30,_thangsinhnhat
	ST   -Y,R30
	CALL _ghidulieu
; 0000 09F9                 EIMSK=0x01;  //  cho phep ngat ngoai 0  <at328>
	LDI  R30,LOW(1)
	OUT  0x1D,R30
; 0000 09FA                 return;
	RJMP _0x2000001
; 0000 09FB              }
; 0000 09FC             }
_0x536:
; 0000 09FD           }
	RJMP _0x512
; 0000 09FE     }
; 0000 09FF  }
_0x50C:
	RJMP _0x4E8
; 0000 0A00  }
_0x2000001:
	CALL __LOADLOCR4
	ADIW R28,4
	RET
;
;void caitrangthai()
; 0000 0A03 {
_caitrangthai:
; 0000 0A04   xuongchuluccaidatds('B'-65,27,'T'-65,29,11,11,11,11);
	LDI  R30,LOW(1)
	ST   -Y,R30
	LDI  R30,LOW(27)
	ST   -Y,R30
	LDI  R30,LOW(19)
	CALL SUBOPT_0xA9
	CALL SUBOPT_0xBA
; 0000 0A05   ma[0][1]=chu[27][0];
; 0000 0A06   if(trangthaibaothuc==1){thanhtruotbat();}
	LDS  R26,_trangthaibaothuc
	CPI  R26,LOW(0x1)
	BRNE _0x53C
	CALL _thanhtruotbat
; 0000 0A07   else thanhtruottat();
	RJMP _0x53D
_0x53C:
	CALL _thanhtruottat
; 0000 0A08   while(1)
_0x53D:
_0x53E:
; 0000 0A09   {
; 0000 0A0A    hienthi();
	RCALL SUBOPT_0x7B
; 0000 0A0B    if(up==0 || down ==0 || nut==20 || nut==21)
	BREQ _0x542
	CALL SUBOPT_0x7E
	BREQ _0x542
	LDS  R26,_nut
	CPI  R26,LOW(0x14)
	BREQ _0x542
	CPI  R26,LOW(0x15)
	BRNE _0x541
_0x542:
; 0000 0A0C    {
; 0000 0A0D      nut=0;
	LDI  R30,LOW(0)
	STS  _nut,R30
; 0000 0A0E      while(up==0 || down==0){hienthi();}
_0x544:
	CALL SUBOPT_0xBB
	BREQ _0x547
	RCALL SUBOPT_0x7E
	BRNE _0x546
_0x547:
	CALL _hienthi
	RJMP _0x544
_0x546:
; 0000 0A0F      trangthaibaothuc=1-trangthaibaothuc; // ~ trangthaibaothuc
	LDS  R30,_trangthaibaothuc
	CALL SUBOPT_0xBC
	STS  _trangthaibaothuc,R30
; 0000 0A10      if(trangthaibaothuc==1){thanhtruotbat();}
	LDS  R26,_trangthaibaothuc
	CPI  R26,LOW(0x1)
	BRNE _0x549
	CALL _thanhtruotbat
; 0000 0A11      else thanhtruottat();
	RJMP _0x54A
_0x549:
	CALL _thanhtruottat
; 0000 0A12    }
_0x54A:
; 0000 0A13    if(ok==0 || nut ==22)
_0x541:
	CALL SUBOPT_0x82
	BREQ _0x54C
	LDS  R26,_nut
	CPI  R26,LOW(0x16)
	BREQ _0x54C
	RJMP _0x54B
_0x54C:
; 0000 0A14    {
; 0000 0A15      nut=0;
	LDI  R30,LOW(0)
	STS  _nut,R30
; 0000 0A16      while(ok==0){hienthi();}
_0x54E:
	SBIC 0x6,2
	RJMP _0x550
	CALL _hienthi
	RJMP _0x54E
_0x550:
; 0000 0A17      xuongchuluccaidatds('S'-65,27,'N'-65,29,11,11,11,11);
	LDI  R30,LOW(18)
	ST   -Y,R30
	LDI  R30,LOW(27)
	ST   -Y,R30
	LDI  R30,LOW(13)
	CALL SUBOPT_0xA9
	CALL SUBOPT_0xBA
; 0000 0A18      ma[0][1]=chu[27][0];
; 0000 0A19      if(trangthaisinhnhat==1){thanhtruotbat();}
	LDS  R26,_trangthaisinhnhat
	CPI  R26,LOW(0x1)
	BRNE _0x551
	CALL _thanhtruotbat
; 0000 0A1A      else thanhtruottat();
	RJMP _0x552
_0x551:
	CALL _thanhtruottat
; 0000 0A1B      while(1)
_0x552:
_0x553:
; 0000 0A1C       {
; 0000 0A1D        hienthi();
	RCALL SUBOPT_0x7B
; 0000 0A1E        if(up==0 || down ==0 || nut==20 || nut==21)
	BREQ _0x557
	RCALL SUBOPT_0x7E
	BREQ _0x557
	LDS  R26,_nut
	CPI  R26,LOW(0x14)
	BREQ _0x557
	CPI  R26,LOW(0x15)
	BRNE _0x556
_0x557:
; 0000 0A1F        {
; 0000 0A20          nut=0;
	LDI  R30,LOW(0)
	STS  _nut,R30
; 0000 0A21          while(up==0 || down==0){hienthi();}
_0x559:
	CALL SUBOPT_0xBB
	BREQ _0x55C
	RCALL SUBOPT_0x7E
	BRNE _0x55B
_0x55C:
	CALL _hienthi
	RJMP _0x559
_0x55B:
; 0000 0A22           trangthaisinhnhat=1-trangthaisinhnhat; // ~ trangthai sinh nhat
	LDS  R30,_trangthaisinhnhat
	CALL SUBOPT_0xBC
	STS  _trangthaisinhnhat,R30
; 0000 0A23           if(trangthaisinhnhat==1){thanhtruotbat();}
	LDS  R26,_trangthaisinhnhat
	CPI  R26,LOW(0x1)
	BRNE _0x55E
	CALL _thanhtruotbat
; 0000 0A24           else thanhtruottat();
	RJMP _0x55F
_0x55E:
	CALL _thanhtruottat
; 0000 0A25        }
_0x55F:
; 0000 0A26        if(ok==0 || nut ==22)
_0x556:
	RCALL SUBOPT_0x82
	BREQ _0x561
	LDS  R26,_nut
	CPI  R26,LOW(0x16)
	BREQ _0x561
	RJMP _0x560
_0x561:
; 0000 0A27        {
; 0000 0A28          nut=0;
	LDI  R30,LOW(0)
	STS  _nut,R30
; 0000 0A29          while(ok==0){hienthi();}
_0x563:
	SBIC 0x6,2
	RJMP _0x565
	CALL _hienthi
	RJMP _0x563
_0x565:
; 0000 0A2A          xuongchuluccaidatds('A'-65,'U'-65,'T'-65,'O'-65,11,11,11,11);
	LDI  R30,LOW(0)
	ST   -Y,R30
	LDI  R30,LOW(20)
	ST   -Y,R30
	LDI  R30,LOW(19)
	ST   -Y,R30
	LDI  R30,LOW(14)
	ST   -Y,R30
	LDI  R30,LOW(11)
	ST   -Y,R30
	ST   -Y,R30
	ST   -Y,R30
	ST   -Y,R30
	RCALL _xuongchuluccaidatds
; 0000 0A2B          ma[0][1]=0xff;
	LDI  R30,LOW(255)
	__PUTB1MN _ma,1
; 0000 0A2C          ma[0][0]=0xff;
	STS  _ma,R30
; 0000 0A2D          if(trangthaiauto==1){thanhtruotbat();}
	LDS  R26,_trangthaiauto
	CPI  R26,LOW(0x1)
	BRNE _0x566
	CALL _thanhtruotbat
; 0000 0A2E          else thanhtruottat();
	RJMP _0x567
_0x566:
	CALL _thanhtruottat
; 0000 0A2F          while(1)
_0x567:
_0x568:
; 0000 0A30           {
; 0000 0A31            hienthi();
	RCALL SUBOPT_0x7B
; 0000 0A32            if(up==0 || down ==0 || nut==20 || nut==21)
	BREQ _0x56C
	RCALL SUBOPT_0x7E
	BREQ _0x56C
	LDS  R26,_nut
	CPI  R26,LOW(0x14)
	BREQ _0x56C
	CPI  R26,LOW(0x15)
	BRNE _0x56B
_0x56C:
; 0000 0A33            {
; 0000 0A34              nut=0;
	LDI  R30,LOW(0)
	STS  _nut,R30
; 0000 0A35              while(up==0 || down==0){hienthi();}
_0x56E:
	CALL SUBOPT_0xBB
	BREQ _0x571
	RCALL SUBOPT_0x7E
	BRNE _0x570
_0x571:
	CALL _hienthi
	RJMP _0x56E
_0x570:
; 0000 0A36               trangthaiauto=1-trangthaiauto; // ~ trangthaiauto
	LDS  R30,_trangthaiauto
	CALL SUBOPT_0xBC
	STS  _trangthaiauto,R30
; 0000 0A37               if(trangthaiauto==1){thanhtruotbat();}
	LDS  R26,_trangthaiauto
	CPI  R26,LOW(0x1)
	BRNE _0x573
	CALL _thanhtruotbat
; 0000 0A38               else thanhtruottat();
	RJMP _0x574
_0x573:
	CALL _thanhtruottat
; 0000 0A39            }
_0x574:
; 0000 0A3A            if(ok==0 || nut==22)
_0x56B:
	RCALL SUBOPT_0x82
	BREQ _0x576
	LDS  R26,_nut
	CPI  R26,LOW(0x16)
	BREQ _0x576
	RJMP _0x575
_0x576:
; 0000 0A3B            {
; 0000 0A3C             nut=0;
	LDI  R30,LOW(0)
	STS  _nut,R30
; 0000 0A3D             while(ok==0){hienthi();}
_0x578:
	SBIC 0x6,2
	RJMP _0x57A
	CALL _hienthi
	RJMP _0x578
_0x57A:
; 0000 0A3E             xuongchuluccaidatds('E'-65,27,'F'-65,29,11,11,11,11);
	LDI  R30,LOW(4)
	ST   -Y,R30
	LDI  R30,LOW(27)
	ST   -Y,R30
	LDI  R30,LOW(5)
	CALL SUBOPT_0xA9
	CALL SUBOPT_0xBA
; 0000 0A3F             ma[0][1]=chu[27][0];
; 0000 0A40             if(hieuungchuyengiay==1){thanhtruotbat();}
	LDS  R26,_hieuungchuyengiay
	CPI  R26,LOW(0x1)
	BRNE _0x57B
	CALL _thanhtruotbat
; 0000 0A41             else thanhtruottat();
	RJMP _0x57C
_0x57B:
	CALL _thanhtruottat
; 0000 0A42             while(1)
_0x57C:
_0x57D:
; 0000 0A43             {
; 0000 0A44              hienthi();
	RCALL SUBOPT_0x7B
; 0000 0A45              if(up==0 || down ==0 || nut==20 || nut==21)
	BREQ _0x581
	RCALL SUBOPT_0x7E
	BREQ _0x581
	LDS  R26,_nut
	CPI  R26,LOW(0x14)
	BREQ _0x581
	CPI  R26,LOW(0x15)
	BRNE _0x580
_0x581:
; 0000 0A46                {
; 0000 0A47                  nut=0;
	LDI  R30,LOW(0)
	STS  _nut,R30
; 0000 0A48                  while(up==0 || down==0){hienthi();}
_0x583:
	CALL SUBOPT_0xBB
	BREQ _0x586
	RCALL SUBOPT_0x7E
	BRNE _0x585
_0x586:
	CALL _hienthi
	RJMP _0x583
_0x585:
; 0000 0A49                   hieuungchuyengiay=1-hieuungchuyengiay; // ~ trangthaihieu ung
	LDS  R30,_hieuungchuyengiay
	CALL SUBOPT_0xBC
	STS  _hieuungchuyengiay,R30
; 0000 0A4A                   if(hieuungchuyengiay==1){thanhtruotbat();}
	LDS  R26,_hieuungchuyengiay
	CPI  R26,LOW(0x1)
	BRNE _0x588
	CALL _thanhtruotbat
; 0000 0A4B                   else thanhtruottat();
	RJMP _0x589
_0x588:
	CALL _thanhtruottat
; 0000 0A4C                }
_0x589:
; 0000 0A4D 
; 0000 0A4E               if(ok==0 || nut==22)
_0x580:
	RCALL SUBOPT_0x82
	BREQ _0x58B
	LDS  R26,_nut
	CPI  R26,LOW(0x16)
	BRNE _0x58A
_0x58B:
; 0000 0A4F                {
; 0000 0A50                 nut=0;
	LDI  R30,LOW(0)
	STS  _nut,R30
; 0000 0A51                 while(ok==0){hienthi();}
_0x58D:
	SBIC 0x6,2
	RJMP _0x58F
	CALL _hienthi
	RJMP _0x58D
_0x58F:
; 0000 0A52                 ghidulieu(31,trangthaibaothuc);
	LDI  R30,LOW(31)
	ST   -Y,R30
	LDS  R30,_trangthaibaothuc
	ST   -Y,R30
	CALL _ghidulieu
; 0000 0A53                 ghidulieu(32,trangthaisinhnhat);
	LDI  R30,LOW(32)
	ST   -Y,R30
	LDS  R30,_trangthaisinhnhat
	ST   -Y,R30
	CALL _ghidulieu
; 0000 0A54                 ghidulieu(33,trangthaiauto);
	LDI  R30,LOW(33)
	ST   -Y,R30
	LDS  R30,_trangthaiauto
	ST   -Y,R30
	CALL _ghidulieu
; 0000 0A55                 ghidulieu(34,hieuungchuyengiay);
	LDI  R30,LOW(34)
	ST   -Y,R30
	LDS  R30,_hieuungchuyengiay
	ST   -Y,R30
	CALL _ghidulieu
; 0000 0A56                 return;
	RET
; 0000 0A57                }
; 0000 0A58            }
_0x58A:
	RJMP _0x57D
; 0000 0A59           }
; 0000 0A5A          }
_0x575:
	RJMP _0x568
; 0000 0A5B 
; 0000 0A5C 
; 0000 0A5D        }
; 0000 0A5E       }
_0x560:
	RJMP _0x553
; 0000 0A5F 
; 0000 0A60 
; 0000 0A61    }
; 0000 0A62   }
_0x54B:
	RJMP _0x53E
; 0000 0A63 }
;
;
;//--------------------------ham Bat Tat dong ho--------------//
;void tatnguon()
; 0000 0A68 {
_tatnguon:
; 0000 0A69  if(nut==23)
	LDS  R26,_nut
	CPI  R26,LOW(0x17)
	BRNE _0x590
; 0000 0A6A  {
; 0000 0A6B   nut=0;
	LDI  R30,LOW(0)
	STS  _nut,R30
; 0000 0A6C   while(1)
_0x591:
; 0000 0A6D   {
; 0000 0A6E    if(nut==23)
	LDS  R26,_nut
	CPI  R26,LOW(0x17)
	BRNE _0x594
; 0000 0A6F    {
; 0000 0A70     EIMSK=0x00;  // k cho phep ngat ngoai 0  <at328>
	RCALL SUBOPT_0x83
; 0000 0A71     nut=0;
; 0000 0A72     xuongsosaucaidat(gio/10,gio%10,10,phut/10,phut%10,10,giay/10,giay%10);
	MOV  R26,R9
	RCALL SUBOPT_0x14
	ST   -Y,R30
	MOV  R26,R9
	RCALL SUBOPT_0x15
	CALL SUBOPT_0xBD
	ST   -Y,R30
	MOV  R26,R14
	RCALL SUBOPT_0x15
	CALL SUBOPT_0xBE
	ST   -Y,R30
	MOV  R26,R13
	RCALL SUBOPT_0x15
	CALL SUBOPT_0xBF
; 0000 0A73     ma[0][1]=0xff;
; 0000 0A74     EIMSK=0x01;  //  cho phep ngat ngoai 0  <at328>
	LDI  R30,LOW(1)
	OUT  0x1D,R30
; 0000 0A75     return;
	RET
; 0000 0A76    }
; 0000 0A77   }
_0x594:
	RJMP _0x591
; 0000 0A78  }
; 0000 0A79 }
_0x590:
	RET
;
;//------------------------end------------------------------//
;
;void caidat()
; 0000 0A7E {
_caidat:
; 0000 0A7F  unsigned char d;
; 0000 0A80  if(ok==0 || nut==22)   // neu nut ok dc nhan hoac hong ngoai co gia tri ==22
	ST   -Y,R17
;	d -> R17
	RCALL SUBOPT_0x82
	BREQ _0x596
	LDS  R26,_nut
	CPI  R26,LOW(0x16)
	BREQ _0x596
	RJMP _0x595
_0x596:
; 0000 0A81  {
; 0000 0A82   nut=0; // tra hong ngoai ve 0
	LDI  R30,LOW(0)
	STS  _nut,R30
; 0000 0A83   while(ok==0){hienthi();}
_0x598:
	SBIC 0x6,2
	RJMP _0x59A
	CALL _hienthi
	RJMP _0x598
_0x59A:
; 0000 0A84   xuongchuluccaidat('C'-65,35,'I'-65,29,'T'-65,'H'-65,43,'I'-65);
	RCALL SUBOPT_0xA1
	LDI  R30,LOW(19)
	ST   -Y,R30
	LDI  R30,LOW(7)
	ST   -Y,R30
	LDI  R30,LOW(43)
	ST   -Y,R30
	LDI  R30,LOW(8)
	ST   -Y,R30
	CALL _xuongchuluccaidat
; 0000 0A85    while(1)
_0x59B:
; 0000 0A86    {
; 0000 0A87     for(d=0;d<88;d++)
	LDI  R17,LOW(0)
_0x59F:
	CPI  R17,88
	BRSH _0x5A0
; 0000 0A88     {
; 0000 0A89      chaychu5();
	CALL _chaychu5
; 0000 0A8A      if(cobaothoat==1){cobaothoat=0;break;}
	LDS  R26,_cobaothoat
	CPI  R26,LOW(0x1)
	BRNE _0x5A1
	LDI  R30,LOW(0)
	STS  _cobaothoat,R30
	RJMP _0x5A0
; 0000 0A8B      if(down==0 || ok==0)break;
_0x5A1:
	RCALL SUBOPT_0x7E
	BREQ _0x5A3
	RCALL SUBOPT_0x82
	BRNE _0x5A2
_0x5A3:
	RJMP _0x5A0
; 0000 0A8C     }dem=0;dem1=0;
_0x5A2:
	SUBI R17,-1
	RJMP _0x59F
_0x5A0:
	CALL SUBOPT_0xC0
; 0000 0A8D     if(ok==0 || nut == 22)
	BREQ _0x5A6
	LDS  R26,_nut
	CPI  R26,LOW(0x16)
	BRNE _0x5A5
_0x5A6:
; 0000 0A8E     {
; 0000 0A8F      nut=0;
	LDI  R30,LOW(0)
	STS  _nut,R30
; 0000 0A90      while(ok==0){hienthi();}
_0x5A8:
	SBIC 0x6,2
	RJMP _0x5AA
	CALL _hienthi
	RJMP _0x5A8
_0x5AA:
; 0000 0A91      caigio();
	CALL _caigio
; 0000 0A92      goto thoat;
	RJMP _0x5AB
; 0000 0A93     }
; 0000 0A94 
; 0000 0A95     if(down==0 || nut == 21)
_0x5A5:
	RCALL SUBOPT_0x7E
	BREQ _0x5AD
	LDS  R26,_nut
	CPI  R26,LOW(0x15)
	BREQ _0x5AD
	RJMP _0x5AC
_0x5AD:
; 0000 0A96     {
; 0000 0A97      nut=0;
	LDI  R30,LOW(0)
	STS  _nut,R30
; 0000 0A98      while(down==0){hienthi();}
_0x5AF:
	SBIC 0x6,1
	RJMP _0x5B1
	CALL _hienthi
	RJMP _0x5AF
_0x5B1:
; 0000 0A99      xuongchuluccaidat('C'-65,35,'I'-65,29,45,'O'-65,29,'S'-65);
	RCALL SUBOPT_0xA1
	LDI  R30,LOW(45)
	ST   -Y,R30
	LDI  R30,LOW(14)
	ST   -Y,R30
	LDI  R30,LOW(29)
	ST   -Y,R30
	LDI  R30,LOW(18)
	ST   -Y,R30
	CALL _xuongchuluccaidat
; 0000 0A9A       while(1)
_0x5B2:
; 0000 0A9B       {
; 0000 0A9C            for(d=0;d<70;d++)
	LDI  R17,LOW(0)
_0x5B6:
	CPI  R17,70
	BRSH _0x5B7
; 0000 0A9D             {
; 0000 0A9E              chaychu6();
	CALL _chaychu6
; 0000 0A9F              if(cobaothoat==1){cobaothoat=0;break;}
	LDS  R26,_cobaothoat
	CPI  R26,LOW(0x1)
	BRNE _0x5B8
	LDI  R30,LOW(0)
	STS  _cobaothoat,R30
	RJMP _0x5B7
; 0000 0AA0              if(down==0 || ok==0)break;
_0x5B8:
	RCALL SUBOPT_0x7E
	BREQ _0x5BA
	RCALL SUBOPT_0x82
	BRNE _0x5B9
_0x5BA:
	RJMP _0x5B7
; 0000 0AA1             }dem=0;dem1=0;
_0x5B9:
	SUBI R17,-1
	RJMP _0x5B6
_0x5B7:
	RCALL SUBOPT_0xC0
; 0000 0AA2            if(ok==0 || nut==22)
	BREQ _0x5BD
	LDS  R26,_nut
	CPI  R26,LOW(0x16)
	BRNE _0x5BC
_0x5BD:
; 0000 0AA3             {
; 0000 0AA4              nut=0;
	LDI  R30,LOW(0)
	STS  _nut,R30
; 0000 0AA5              while(ok==0){hienthi();}
_0x5BF:
	SBIC 0x6,2
	RJMP _0x5C1
	CALL _hienthi
	RJMP _0x5BF
_0x5C1:
; 0000 0AA6              caidosang();
	RCALL _caidosang
; 0000 0AA7              goto thoat;
	RJMP _0x5AB
; 0000 0AA8             }
; 0000 0AA9             if(down==0||nut==21)
_0x5BC:
	RCALL SUBOPT_0x7E
	BREQ _0x5C3
	LDS  R26,_nut
	CPI  R26,LOW(0x15)
	BREQ _0x5C3
	RJMP _0x5C2
_0x5C3:
; 0000 0AAA             {
; 0000 0AAB              nut=0;
	LDI  R30,LOW(0)
	STS  _nut,R30
; 0000 0AAC              while(down==0){hienthi();}
_0x5C5:
	SBIC 0x6,1
	RJMP _0x5C7
	CALL _hienthi
	RJMP _0x5C5
_0x5C7:
; 0000 0AAD              xuongchuluccaidat('C'-65,35,'I'-65,29,'B'-65,36,'O'-65,29);
	RCALL SUBOPT_0xA1
	LDI  R30,LOW(1)
	ST   -Y,R30
	LDI  R30,LOW(36)
	ST   -Y,R30
	LDI  R30,LOW(14)
	ST   -Y,R30
	LDI  R30,LOW(29)
	ST   -Y,R30
	CALL _xuongchuluccaidat
; 0000 0AAE               while(1)
_0x5C8:
; 0000 0AAF               {
; 0000 0AB0                     for(d=0;d<77;d++)
	LDI  R17,LOW(0)
_0x5CC:
	CPI  R17,77
	BRSH _0x5CD
; 0000 0AB1                     {
; 0000 0AB2                      chaychu7();
	CALL _chaychu7
; 0000 0AB3                      if(cobaothoat==1){cobaothoat=0;break;}
	LDS  R26,_cobaothoat
	CPI  R26,LOW(0x1)
	BRNE _0x5CE
	LDI  R30,LOW(0)
	STS  _cobaothoat,R30
	RJMP _0x5CD
; 0000 0AB4                      if(down==0 || ok==0)break;
_0x5CE:
	RCALL SUBOPT_0x7E
	BREQ _0x5D0
	RCALL SUBOPT_0x82
	BRNE _0x5CF
_0x5D0:
	RJMP _0x5CD
; 0000 0AB5                     }dem=0;dem1=0;
_0x5CF:
	SUBI R17,-1
	RJMP _0x5CC
_0x5CD:
	RCALL SUBOPT_0xC0
; 0000 0AB6                     if(ok==0 || nut ==22 )
	BREQ _0x5D3
	LDS  R26,_nut
	CPI  R26,LOW(0x16)
	BRNE _0x5D2
_0x5D3:
; 0000 0AB7                     {
; 0000 0AB8                      nut=0;
	LDI  R30,LOW(0)
	STS  _nut,R30
; 0000 0AB9                      caibaothuc();
	RCALL _caibaothuc
; 0000 0ABA                      while(ok==0){hienthi();}
_0x5D5:
	SBIC 0x6,2
	RJMP _0x5D7
	CALL _hienthi
	RJMP _0x5D5
_0x5D7:
; 0000 0ABB                      goto thoat;
	RJMP _0x5AB
; 0000 0ABC                     }
; 0000 0ABD                    if(down==0 || nut==21)
_0x5D2:
	RCALL SUBOPT_0x7E
	BREQ _0x5D9
	LDS  R26,_nut
	CPI  R26,LOW(0x15)
	BREQ _0x5D9
	RJMP _0x5D8
_0x5D9:
; 0000 0ABE                     {
; 0000 0ABF                      nut=0;
	LDI  R30,LOW(0)
	STS  _nut,R30
; 0000 0AC0                      while(down==0){hienthi();}
_0x5DB:
	SBIC 0x6,1
	RJMP _0x5DD
	CALL _hienthi
	RJMP _0x5DB
_0x5DD:
; 0000 0AC1                      xuongchuluccaidat('C'-65,35,'I'-65,29,'B'-65,46,29,'G'-65);
	RCALL SUBOPT_0xA1
	LDI  R30,LOW(1)
	ST   -Y,R30
	LDI  R30,LOW(46)
	ST   -Y,R30
	LDI  R30,LOW(29)
	ST   -Y,R30
	LDI  R30,LOW(6)
	ST   -Y,R30
	CALL _xuongchuluccaidat
; 0000 0AC2                      ma[0][4]=chu[46][0];
	__POINTW1FN _chu,736
	LPM  R0,Z
	__PUTBR0MN _ma,4
; 0000 0AC3                       while(1)
_0x5DE:
; 0000 0AC4                       {
; 0000 0AC5                        hienthi();
	CALL _hienthi
; 0000 0AC6                        for(d=0;d<64;d++)
	LDI  R17,LOW(0)
_0x5E2:
	CPI  R17,64
	BRSH _0x5E3
; 0000 0AC7                          {
; 0000 0AC8                           chaychu8();
	CALL _chaychu8
; 0000 0AC9                           if(cobaothoat==1){cobaothoat=0;break;}
	LDS  R26,_cobaothoat
	CPI  R26,LOW(0x1)
	BRNE _0x5E4
	LDI  R30,LOW(0)
	STS  _cobaothoat,R30
	RJMP _0x5E3
; 0000 0ACA                           if(down==0 || ok==0)break;
_0x5E4:
	RCALL SUBOPT_0x7E
	BREQ _0x5E6
	RCALL SUBOPT_0x82
	BRNE _0x5E5
_0x5E6:
	RJMP _0x5E3
; 0000 0ACB                          }dem=0;dem1=0;
_0x5E5:
	SUBI R17,-1
	RJMP _0x5E2
_0x5E3:
	RCALL SUBOPT_0xC0
; 0000 0ACC                          if(ok==0 || nut ==22)
	BREQ _0x5E9
	LDS  R26,_nut
	CPI  R26,LOW(0x16)
	BRNE _0x5E8
_0x5E9:
; 0000 0ACD                           {
; 0000 0ACE                             nut=0;
	LDI  R30,LOW(0)
	STS  _nut,R30
; 0000 0ACF                             while(ok==0){hienthi();}
_0x5EB:
	SBIC 0x6,2
	RJMP _0x5ED
	CALL _hienthi
	RJMP _0x5EB
_0x5ED:
; 0000 0AD0                             caibugio();
	RCALL _caibugio
; 0000 0AD1                             goto thoat;
	RJMP _0x5AB
; 0000 0AD2                           }
; 0000 0AD3                           if(down==0 || nut ==21)
_0x5E8:
	RCALL SUBOPT_0x7E
	BREQ _0x5EF
	LDS  R26,_nut
	CPI  R26,LOW(0x15)
	BREQ _0x5EF
	RJMP _0x5EE
_0x5EF:
; 0000 0AD4                             {
; 0000 0AD5                              nut=0;
	LDI  R30,LOW(0)
	STS  _nut,R30
; 0000 0AD6                              while(down==0){hienthi();}
_0x5F1:
	SBIC 0x6,1
	RJMP _0x5F3
	CALL _hienthi
	RJMP _0x5F1
_0x5F3:
; 0000 0AD7                              xuongchuluccaidat('C'-65,35,'I'-65,29,'L'-65,47,'N'-65,'H'-65);
	RCALL SUBOPT_0xA1
	LDI  R30,LOW(11)
	ST   -Y,R30
	LDI  R30,LOW(47)
	ST   -Y,R30
	LDI  R30,LOW(13)
	ST   -Y,R30
	LDI  R30,LOW(7)
	ST   -Y,R30
	CALL _xuongchuluccaidat
; 0000 0AD8                              ma[0][5]=chu[47][0];
	__POINTW1FN _chu,752
	LPM  R0,Z
	__PUTBR0MN _ma,5
; 0000 0AD9                               while(1)
_0x5F4:
; 0000 0ADA                               {
; 0000 0ADB                                  hienthi();
	CALL _hienthi
; 0000 0ADC                                  if(ok==0 || nut ==22)
	RCALL SUBOPT_0x82
	BREQ _0x5F8
	LDS  R26,_nut
	CPI  R26,LOW(0x16)
	BRNE _0x5F7
_0x5F8:
; 0000 0ADD                                   {
; 0000 0ADE                                     nut=0;
	LDI  R30,LOW(0)
	STS  _nut,R30
; 0000 0ADF                                     while(ok==0){hienthi();}
_0x5FA:
	SBIC 0x6,2
	RJMP _0x5FC
	CALL _hienthi
	RJMP _0x5FA
_0x5FC:
; 0000 0AE0                                     chedohoclenh=1;
	LDI  R30,LOW(1)
	STS  _chedohoclenh,R30
; 0000 0AE1                                     hoclenh();
	RCALL _hoclenh
; 0000 0AE2                                     chedohoclenh=0;
	LDI  R30,LOW(0)
	STS  _chedohoclenh,R30
; 0000 0AE3                                     goto thoat;
	RJMP _0x5AB
; 0000 0AE4                                   }
; 0000 0AE5                                   if(down==0 || nut ==21)
_0x5F7:
	RCALL SUBOPT_0x7E
	BREQ _0x5FE
	LDS  R26,_nut
	CPI  R26,LOW(0x15)
	BREQ _0x5FE
	RJMP _0x5FD
_0x5FE:
; 0000 0AE6                                   {
; 0000 0AE7                                     nut=0;
	LDI  R30,LOW(0)
	STS  _nut,R30
; 0000 0AE8                                     while(ok==0){hienthi();}
_0x600:
	SBIC 0x6,2
	RJMP _0x602
	CALL _hienthi
	RJMP _0x600
_0x602:
; 0000 0AE9                                     xuongchuluccaidat('C'-65,35,'I'-65,29,29,'S'-65,'N'-65,29);
	RCALL SUBOPT_0xA1
	LDI  R30,LOW(29)
	ST   -Y,R30
	LDI  R30,LOW(18)
	ST   -Y,R30
	LDI  R30,LOW(13)
	ST   -Y,R30
	LDI  R30,LOW(29)
	RCALL SUBOPT_0xC1
; 0000 0AEA                                     ma[0][1]=chu[35][0];
; 0000 0AEB                                     ma[0][2]=0xff;;
; 0000 0AEC                                   while(1)
_0x603:
; 0000 0AED                                    {
; 0000 0AEE                                          hienthi();
	CALL _hienthi
; 0000 0AEF                                          if(ok==0 || nut ==22)
	RCALL SUBOPT_0x82
	BREQ _0x607
	LDS  R26,_nut
	CPI  R26,LOW(0x16)
	BRNE _0x606
_0x607:
; 0000 0AF0                                           {
; 0000 0AF1                                             nut=0;
	LDI  R30,LOW(0)
	STS  _nut,R30
; 0000 0AF2                                             while(ok==0){hienthi();}
_0x609:
	SBIC 0x6,2
	RJMP _0x60B
	CALL _hienthi
	RJMP _0x609
_0x60B:
; 0000 0AF3                                             caisinhnhat();
	RCALL _caisinhnhat
; 0000 0AF4                                             goto thoat;
	RJMP _0x5AB
; 0000 0AF5                                           }
; 0000 0AF6                                           if(down==0 || nut ==21)
_0x606:
	RCALL SUBOPT_0x7E
	BREQ _0x60D
	LDS  R26,_nut
	CPI  R26,LOW(0x15)
	BREQ _0x60D
	RJMP _0x60C
_0x60D:
; 0000 0AF7                                      {
; 0000 0AF8                                             nut=0;
	LDI  R30,LOW(0)
	STS  _nut,R30
; 0000 0AF9                                             while(down==0){hienthi();}
_0x60F:
	SBIC 0x6,1
	RJMP _0x611
	CALL _hienthi
	RJMP _0x60F
_0x611:
; 0000 0AFA                                             xuongchuluccaidat('C'-65,35,'I'-65,29,'T'-65,'R'-65,49,'N'-65);
	RCALL SUBOPT_0xA1
	LDI  R30,LOW(19)
	ST   -Y,R30
	LDI  R30,LOW(17)
	ST   -Y,R30
	LDI  R30,LOW(49)
	ST   -Y,R30
	LDI  R30,LOW(13)
	RCALL SUBOPT_0xC1
; 0000 0AFB                                             ma[0][1]=chu[35][0];
; 0000 0AFC                                             ma[0][2]=0xff;;
; 0000 0AFD                                             while(1)
_0x612:
; 0000 0AFE                                             {
; 0000 0AFF                                               hienthi();
	CALL _hienthi
; 0000 0B00                                               for(d=0;d<98;d++)
	LDI  R17,LOW(0)
_0x616:
	CPI  R17,98
	BRSH _0x617
; 0000 0B01                                              {
; 0000 0B02                                               chaychutrangthai();
	CALL _chaychutrangthai
; 0000 0B03                                               if(cobaothoat==1){cobaothoat=0;break;}
	LDS  R26,_cobaothoat
	CPI  R26,LOW(0x1)
	BRNE _0x618
	LDI  R30,LOW(0)
	STS  _cobaothoat,R30
	RJMP _0x617
; 0000 0B04                                               if(down==0 || ok==0)break;
_0x618:
	RCALL SUBOPT_0x7E
	BREQ _0x61A
	RCALL SUBOPT_0x82
	BRNE _0x619
_0x61A:
	RJMP _0x617
; 0000 0B05                                              }dem=0;dem1=0;
_0x619:
	SUBI R17,-1
	RJMP _0x616
_0x617:
	RCALL SUBOPT_0xC0
; 0000 0B06                                              if(ok==0 || nut ==22)
	BREQ _0x61D
	LDS  R26,_nut
	CPI  R26,LOW(0x16)
	BRNE _0x61C
_0x61D:
; 0000 0B07                                               {
; 0000 0B08                                                 nut=0;
	LDI  R30,LOW(0)
	STS  _nut,R30
; 0000 0B09                                                 while(ok==0){hienthi();}
_0x61F:
	SBIC 0x6,2
	RJMP _0x621
	CALL _hienthi
	RJMP _0x61F
_0x621:
; 0000 0B0A                                                 caitrangthai();
	RCALL _caitrangthai
; 0000 0B0B                                                 goto thoat;
	RJMP _0x5AB
; 0000 0B0C                                               }
; 0000 0B0D                                               if(down==0 || nut ==21)
_0x61C:
	RCALL SUBOPT_0x7E
	BREQ _0x623
	LDS  R26,_nut
	CPI  R26,LOW(0x15)
	BRNE _0x622
_0x623:
; 0000 0B0E                                               {
; 0000 0B0F                                                nut=0;
	LDI  R30,LOW(0)
	STS  _nut,R30
; 0000 0B10                                                while(down==0){hienthi();}
_0x625:
	SBIC 0x6,1
	RJMP _0x627
	CALL _hienthi
	RJMP _0x625
_0x627:
; 0000 0B11                                                goto thoat;
	RJMP _0x5AB
; 0000 0B12                                               }
; 0000 0B13                                           }
_0x622:
	RJMP _0x612
; 0000 0B14                                       }
; 0000 0B15                                     }
_0x60C:
	RJMP _0x603
; 0000 0B16                                   }
; 0000 0B17 
; 0000 0B18                               }
_0x5FD:
	RJMP _0x5F4
; 0000 0B19                             }
; 0000 0B1A 
; 0000 0B1B                       }
_0x5EE:
	RJMP _0x5DE
; 0000 0B1C                     }
; 0000 0B1D 
; 0000 0B1E               }
_0x5D8:
	RJMP _0x5C8
; 0000 0B1F             }
; 0000 0B20       }
_0x5C2:
	RJMP _0x5B2
; 0000 0B21     }
; 0000 0B22    }
_0x5AC:
	RJMP _0x59B
; 0000 0B23   thoat:;
_0x5AB:
; 0000 0B24   giay=docds(0x00);
	RCALL SUBOPT_0x93
; 0000 0B25   xuongsosaucaidat(gio/10,gio%10,10,phut/10,phut%10,10,giay/10,giay%10);
	MOV  R26,R9
	RCALL SUBOPT_0x14
	ST   -Y,R30
	MOV  R26,R9
	RCALL SUBOPT_0x15
	RCALL SUBOPT_0xBD
	ST   -Y,R30
	MOV  R26,R14
	RCALL SUBOPT_0x15
	RCALL SUBOPT_0xBE
	ST   -Y,R30
	MOV  R26,R13
	RCALL SUBOPT_0x15
	RCALL SUBOPT_0xBF
; 0000 0B26   ma[0][1]=0xff;
; 0000 0B27  }
; 0000 0B28 }
_0x595:
	LD   R17,Y+
	RET
;
;interrupt [EXT_INT0] void Ngat_Ngoai_0(){
; 0000 0B2A interrupt [2] void Ngat_Ngoai_0(){
_Ngat_Ngoai_0:
	ST   -Y,R0
	ST   -Y,R1
	ST   -Y,R15
	ST   -Y,R22
	ST   -Y,R23
	ST   -Y,R24
	ST   -Y,R25
	ST   -Y,R26
	ST   -Y,R27
	ST   -Y,R30
	ST   -Y,R31
	IN   R30,SREG
	ST   -Y,R30
; 0000 0B2B     unsigned int pulse_width;
; 0000 0B2C     unsigned char docirtrongbonho;
; 0000 0B2D     TCCR1B = 0x00; //Stop Timer 1
	CALL __SAVELOCR4
;	pulse_width -> R16,R17
;	docirtrongbonho -> R19
	LDI  R30,LOW(0)
	STS  129,R30
; 0000 0B2E     pulse_width = TCNT1L + (TCNT1H*256);
	LDS  R30,132
	LDI  R31,0
	MOVW R26,R30
	LDS  R30,133
	MOV  R31,R30
	LDI  R30,0
	ADD  R30,R26
	ADC  R31,R27
	MOVW R16,R30
; 0000 0B2F     TCNT1H=0x63;
	LDI  R30,LOW(99)
	STS  133,R30
; 0000 0B30     TCNT1L=0xC0;
	LDI  R30,LOW(192)
	STS  132,R30
; 0000 0B31 
; 0000 0B32     TCCR1B = 0x02;      // kich hoat timer /8
	LDI  R30,LOW(2)
	STS  129,R30
; 0000 0B33     pulse_width = pulse_width - 25536;
	__SUBWRN 16,17,25536
; 0000 0B34     switch(IRI){
	LDS  R30,_IRI
	LDI  R31,0
; 0000 0B35         case 0:
	SBIW R30,0
	BRNE _0x62B
; 0000 0B36                 IRI=1;
	LDI  R30,LOW(1)
	STS  _IRI,R30
; 0000 0B37                 break;
	RJMP _0x62A
; 0000 0B38         case 1:
_0x62B:
	CPI  R30,LOW(0x1)
	LDI  R26,HIGH(0x1)
	CPC  R31,R26
	BRNE _0x62C
; 0000 0B39                 if(pulse_width > 4000){
	__CPWRN 16,17,4001
	BRLO _0x62D
; 0000 0B3A                     IRI=2;
	LDI  R30,LOW(2)
	STS  _IRI,R30
; 0000 0B3B                     giatri=0;
	LDI  R30,LOW(0)
	STS  _giatri,R30
	STS  _giatri+1,R30
	STS  _giatri+2,R30
	STS  _giatri+3,R30
; 0000 0B3C                 }
; 0000 0B3D                 else
	RJMP _0x62E
_0x62D:
; 0000 0B3E                     IRI--;
	LDS  R30,_IRI
	SUBI R30,LOW(1)
	STS  _IRI,R30
; 0000 0B3F                 break;
_0x62E:
	RJMP _0x62A
; 0000 0B40         case 2:
_0x62C:
	CPI  R30,LOW(0x2)
	LDI  R26,HIGH(0x2)
	CPC  R31,R26
	BRNE _0x62F
; 0000 0B41                     giatri <<= 1;
	RCALL SUBOPT_0xC2
	CALL __LSLD1
	RCALL SUBOPT_0xC3
; 0000 0B42                     if(pulse_width > 3000)
	__CPWRN 16,17,3001
	BRLO _0x630
; 0000 0B43                     giatri |= 1;
	RCALL SUBOPT_0xC2
	ORI  R30,1
	RCALL SUBOPT_0xC3
; 0000 0B44                     break;
_0x630:
	RJMP _0x62A
; 0000 0B45         case 3:
_0x62F:
	CPI  R30,LOW(0x3)
	LDI  R26,HIGH(0x3)
	CPC  R31,R26
	BRNE _0x62A
; 0000 0B46                 IRI=0;
	LDI  R30,LOW(0)
	STS  _IRI,R30
; 0000 0B47                 lenhIR=giatri;
	LDS  R30,_giatri
	STS  _lenhIR,R30
; 0000 0B48                 if(chedohoclenh==0)
	LDS  R30,_chedohoclenh
	CPI  R30,0
	BRNE _0x632
; 0000 0B49                 {
; 0000 0B4A                   nut=0;
	LDI  R30,LOW(0)
	STS  _nut,R30
; 0000 0B4B                   for(docirtrongbonho=20;docirtrongbonho<24;docirtrongbonho++)
	LDI  R19,LOW(20)
_0x634:
	CPI  R19,24
	BRSH _0x635
; 0000 0B4C                   {
; 0000 0B4D                    if(docdulieu(docirtrongbonho)==lenhIR)
	ST   -Y,R19
	CALL _docdulieu
	MOV  R26,R30
	LDS  R30,_lenhIR
	CP   R30,R26
	BRNE _0x636
; 0000 0B4E                    {
; 0000 0B4F                      nut=docirtrongbonho;
	STS  _nut,R19
; 0000 0B50                      cobaothoat=1;
	LDI  R30,LOW(1)
	STS  _cobaothoat,R30
; 0000 0B51                      break;
	RJMP _0x635
; 0000 0B52                    }
; 0000 0B53                   }
_0x636:
	SUBI R19,-1
	RJMP _0x634
_0x635:
; 0000 0B54                 }
; 0000 0B55                 break;
_0x632:
; 0000 0B56     }
_0x62A:
; 0000 0B57 
; 0000 0B58 }
	CALL __LOADLOCR4
	ADIW R28,4
	LD   R30,Y+
	OUT  SREG,R30
	LD   R31,Y+
	LD   R30,Y+
	LD   R27,Y+
	LD   R26,Y+
	LD   R25,Y+
	LD   R24,Y+
	LD   R23,Y+
	LD   R22,Y+
	LD   R15,Y+
	LD   R1,Y+
	LD   R0,Y+
	RETI
;
;interrupt [TIM1_OVF] void Ngat_Timer_1()
; 0000 0B5B {
_Ngat_Timer_1:
	ST   -Y,R26
	ST   -Y,R30
	IN   R30,SREG
	ST   -Y,R30
; 0000 0B5C     TCCR1B = 0x00;
	LDI  R30,LOW(0)
	STS  129,R30
; 0000 0B5D     if(IRI == 1) IRI=0;
	LDS  R26,_IRI
	CPI  R26,LOW(0x1)
	BRNE _0x637
	RJMP _0x678
; 0000 0B5E     else if(IRI == 2) IRI=3;
_0x637:
	LDS  R26,_IRI
	CPI  R26,LOW(0x2)
	BRNE _0x639
	LDI  R30,LOW(3)
_0x678:
	STS  _IRI,R30
; 0000 0B5F }
_0x639:
	LD   R30,Y+
	OUT  SREG,R30
	LD   R30,Y+
	LD   R26,Y+
	RETI
;
;
;void tudong()
; 0000 0B63 {
_tudong:
; 0000 0B64  if(trangthaiauto==1)
	LDS  R26,_trangthaiauto
	CPI  R26,LOW(0x1)
	BRNE _0x63A
; 0000 0B65  {
; 0000 0B66     if(gio==6 && phut == 0 && giay <5 ){sang=30;}
	LDI  R30,LOW(6)
	CP   R30,R9
	BRNE _0x63C
	LDI  R30,LOW(0)
	CP   R30,R14
	BRNE _0x63C
	LDI  R30,LOW(5)
	CP   R13,R30
	BRLO _0x63D
_0x63C:
	RJMP _0x63B
_0x63D:
	LDI  R30,LOW(30)
	LDI  R31,HIGH(30)
	__PUTW1R 11,12
; 0000 0B67     else if(gio == 10 && phut==0 && giay<5){sang=5;hieuungchuyengiay=0;}
	RJMP _0x63E
_0x63B:
	LDI  R30,LOW(10)
	CP   R30,R9
	BRNE _0x640
	LDI  R30,LOW(0)
	CP   R30,R14
	BRNE _0x640
	LDI  R30,LOW(5)
	CP   R13,R30
	BRLO _0x641
_0x640:
	RJMP _0x63F
_0x641:
	LDI  R30,LOW(5)
	LDI  R31,HIGH(5)
	__PUTW1R 11,12
	LDI  R30,LOW(0)
	RJMP _0x679
; 0000 0B68     else if(gio == 5 && phut == 30 && giay<5){sang=200;hieuungchuyengiay=1;}
_0x63F:
	LDI  R30,LOW(5)
	CP   R30,R9
	BRNE _0x644
	LDI  R30,LOW(30)
	CP   R30,R14
	BRNE _0x644
	LDI  R30,LOW(5)
	CP   R13,R30
	BRLO _0x645
_0x644:
	RJMP _0x643
_0x645:
	LDI  R30,LOW(200)
	LDI  R31,HIGH(200)
	__PUTW1R 11,12
	LDI  R30,LOW(1)
_0x679:
	STS  _hieuungchuyengiay,R30
; 0000 0B69  }
_0x643:
_0x63E:
; 0000 0B6A }
_0x63A:
	RET
;
;
;void main(void)
; 0000 0B6E {
_main:
; 0000 0B6F unsigned char v;
; 0000 0B70 // Crystal Oscillator division factor: 1
; 0000 0B71 #pragma optsize-
; 0000 0B72 CLKPR=0x80;
;	v -> R17
	LDI  R30,LOW(128)
	STS  97,R30
; 0000 0B73 CLKPR=0x00;
	LDI  R30,LOW(0)
	STS  97,R30
; 0000 0B74 #ifdef _OPTIMIZE_SIZE_
; 0000 0B75 #pragma optsize+
; 0000 0B76 #endif
; 0000 0B77 
; 0000 0B78 
; 0000 0B79 PORTB=0xFF;       // cong B la out put
	LDI  R30,LOW(255)
	OUT  0x5,R30
; 0000 0B7A DDRB=0xFF;
	OUT  0x4,R30
; 0000 0B7B 
; 0000 0B7C PORTC=0x7F;    // 3 bit dau la IN, con lai Out
	LDI  R30,LOW(127)
	OUT  0x8,R30
; 0000 0B7D DDRC=0x78;
	LDI  R30,LOW(120)
	OUT  0x7,R30
; 0000 0B7E 
; 0000 0B7F PORTD=0xFF;     //bit thu hai la In , con lai Out
	LDI  R30,LOW(255)
	OUT  0xB,R30
; 0000 0B80 DDRD=0xFB;
	LDI  R30,LOW(251)
	OUT  0xA,R30
; 0000 0B81 
; 0000 0B82 
; 0000 0B83 // KHOI TAO TIMER1
; 0000 0B84 TCCR0A=0x00;
	LDI  R30,LOW(0)
	OUT  0x24,R30
; 0000 0B85 TCCR0B=0x00;        // dung timer   // = 0x04 de kich hoat timer /255
	OUT  0x25,R30
; 0000 0B86 
; 0000 0B87 TCCR1A=0x00;
	STS  128,R30
; 0000 0B88 TCCR1B=0x00;        // dung timer   // = 0x02 de kich hoat timer /8
	STS  129,R30
; 0000 0B89 
; 0000 0B8A //TIMSK=0x05;    // Kich hoat ngat tran TIMER1 va timer 0 cua at8     ( 0x04 la timer 1 | 0x05 la ca 2 time 1 va 0 )
; 0000 0B8B TIMSK0=0x01;  // kich hoat ngat tran t0
	LDI  R30,LOW(1)
	STS  110,R30
; 0000 0B8C TIMSK1=0x01;  // kich hoat ngat tran t1
	STS  111,R30
; 0000 0B8D 
; 0000 0B8E 
; 0000 0B8F EIMSK=0x01;  // cho phep ngat ngoai 0  <at328>
	OUT  0x1D,R30
; 0000 0B90 EICRA=0x02; //EX0 ngat canh xuong <AT328>
	LDI  R30,LOW(2)
	STS  105,R30
; 0000 0B91 
; 0000 0B92 //GICR=0x40; //cho phep ngat ngoai 0 < at8>
; 0000 0B93 //MCUCR=0x02; // ngat canh xuong AT8
; 0000 0B94 #asm("sei")    // Kich hoat ngat toan cuc
	sei
; 0000 0B95 
; 0000 0B96 i2c_init();     // khoi tao i2c
	CALL _i2c_init
; 0000 0B97 laydosang();
	CALL _laydosang
; 0000 0B98 laybaothuc_laybugio();
	CALL _laybaothuc_laybugio
; 0000 0B99 laythoigiantrongds1();
	CALL _laythoigiantrongds1
; 0000 0B9A int_ds18b20();
	CALL _int_ds18b20
; 0000 0B9B laynhietdo();
	CALL _laynhietdo
; 0000 0B9C 
; 0000 0B9D 
; 0000 0B9E chaychudongholed();
	CALL _chaychudongholed
; 0000 0B9F for(v=0;v<100;v++){hienthi();}      // hien thi ra ngoai
	LDI  R17,LOW(0)
_0x647:
	CPI  R17,100
	BRSH _0x648
	CALL _hienthi
	SUBI R17,-1
	RJMP _0x647
_0x648:
; 0000 0BA0 chaychuwwebsite();
	CALL _chaychuwwebsite
; 0000 0BA1 while (1)
_0x649:
; 0000 0BA2        {
; 0000 0BA3          tinhbaothuc();
	RCALL _tinhbaothuc
; 0000 0BA4          laythoigiantrongds();
	CALL _laythoigiantrongds
; 0000 0BA5          tinhbugio();
	RCALL _tinhbugio
; 0000 0BA6          if(giay==10 && hieuungchuyengiay!=0)
	LDI  R30,LOW(10)
	CP   R30,R13
	BRNE _0x64D
	LDS  R26,_hieuungchuyengiay
	CPI  R26,LOW(0x0)
	BRNE _0x64E
_0x64D:
	RJMP _0x64C
_0x64E:
; 0000 0BA7          {
; 0000 0BA8           chayngaythang();
	CALL _chayngaythang
; 0000 0BA9           giay=docds(0);
	RCALL SUBOPT_0x93
; 0000 0BAA          }
; 0000 0BAB          if(hieuungchuyengiay==1){if(giay!=giaycu){giaycu=giay;if((phut%2)==1)quetchu(); else lattrang();}}
_0x64C:
	LDS  R26,_hieuungchuyengiay
	CPI  R26,LOW(0x1)
	BRNE _0x64F
	LDS  R30,_giaycu
	CP   R30,R13
	BREQ _0x650
	STS  _giaycu,R13
	MOV  R26,R14
	RCALL SUBOPT_0x46
	BRNE _0x651
	CALL _quetchu
	RJMP _0x652
_0x651:
	CALL _lattrang
_0x652:
_0x650:
; 0000 0BAC          else {ghithoigian();}
	RJMP _0x653
_0x64F:
	CALL _ghithoigian
_0x653:
; 0000 0BAD          hienthi();
	CALL _hienthi
; 0000 0BAE          caidat();
	RCALL _caidat
; 0000 0BAF          tatnguon();
	RCALL _tatnguon
; 0000 0BB0          tudong();
	RCALL _tudong
; 0000 0BB1 
; 0000 0BB2        }
	RJMP _0x649
; 0000 0BB3 }
_0x654:
	RJMP _0x654

	.DSEG
_thu:
	.BYTE 0x1
_ngay:
	.BYTE 0x1
_thang:
	.BYTE 0x1
_nam:
	.BYTE 0x1
_t1:
	.BYTE 0x1
_t2:
	.BYTE 0x1
_t3:
	.BYTE 0x1
_t4:
	.BYTE 0x1
_t5:
	.BYTE 0x1
_t6:
	.BYTE 0x1
_t7:
	.BYTE 0x1
_giaycu:
	.BYTE 0x1
_ngay_al:
	.BYTE 0x1
_thang_al:
	.BYTE 0x1
_trangthaiauto:
	.BYTE 0x1
_nhietdo:
	.BYTE 0x2
_giobt:
	.BYTE 0x1
_phutbt:
	.BYTE 0x1
_trangthaibaothuc:
	.BYTE 0x1
_bugio:
	.BYTE 0x1
_am:
	.BYTE 0x1
_IRI:
	.BYTE 0x1
_lenhIR:
	.BYTE 0x1
_lenhIRcu:
	.BYTE 0x1
_chedohoclenh:
	.BYTE 0x1
_giatri:
	.BYTE 0x4
_nut:
	.BYTE 0x1
_hieuungchuyengiay:
	.BYTE 0x1
_cobaothoat:
	.BYTE 0x1
_ngaysinhnhat:
	.BYTE 0x1
_thangsinhnhat:
	.BYTE 0x1
_cobaosinhnhat:
	.BYTE 0x1
_trangthaisinhnhat:
	.BYTE 0x1
_qtrN:
	.BYTE 0x2
_halfN:
	.BYTE 0x2
_eighthN:
	.BYTE 0x2
_wholeN:
	.BYTE 0x2
_sixteenN:
	.BYTE 0x2
_thirtyTwoN:
	.BYTE 0x2
_sixtyFourN:
	.BYTE 0x2
_sixN:
	.BYTE 0x2
_twelveN:
	.BYTE 0x2
_twentyFourN:
	.BYTE 0x2
_bodem:
	.BYTE 0x1
_ma:
	.BYTE 0x80

	.CSEG
;OPTIMIZER ADDED SUBROUTINE, CALLED 48 TIMES, CODE SIZE REDUCTION:91 WORDS
SUBOPT_0x0:
	LDS  R30,_qtrN
	LDS  R31,_qtrN+1
	RET

;OPTIMIZER ADDED SUBROUTINE, CALLED 3 TIMES, CODE SIZE REDUCTION:1 WORDS
SUBOPT_0x1:
	LDS  R26,_wholeN
	LDS  R27,_wholeN+1
	RET

;OPTIMIZER ADDED SUBROUTINE, CALLED 2 TIMES, CODE SIZE REDUCTION:9 WORDS
SUBOPT_0x2:
	ST   -Y,R31
	ST   -Y,R30
	CALL _MelodyTempo
	LDI  R30,LOW(200)
	LDI  R31,HIGH(200)
	ST   -Y,R31
	ST   -Y,R30
	RCALL SUBOPT_0x0
	ST   -Y,R31
	ST   -Y,R30
	JMP  _Melodyplay

;OPTIMIZER ADDED SUBROUTINE, CALLED 2 TIMES, CODE SIZE REDUCTION:19 WORDS
SUBOPT_0x3:
	LDI  R30,LOW(206)
	LDI  R31,HIGH(206)
	ST   -Y,R31
	ST   -Y,R30
	RCALL SUBOPT_0x0
	ST   -Y,R31
	ST   -Y,R30
	CALL _Melodyplay
	LDI  R30,LOW(211)
	LDI  R31,HIGH(211)
	ST   -Y,R31
	ST   -Y,R30
	RCALL SUBOPT_0x0
	ST   -Y,R31
	ST   -Y,R30
	CALL _Melodyplay
	LDI  R30,LOW(200)
	LDI  R31,HIGH(200)
	ST   -Y,R31
	ST   -Y,R30
	RET

;OPTIMIZER ADDED SUBROUTINE, CALLED 37 TIMES, CODE SIZE REDUCTION:141 WORDS
SUBOPT_0x4:
	RCALL SUBOPT_0x0
	ST   -Y,R31
	ST   -Y,R30
	JMP  _Melodyplay

;OPTIMIZER ADDED SUBROUTINE, CALLED 10 TIMES, CODE SIZE REDUCTION:15 WORDS
SUBOPT_0x5:
	LDI  R30,LOW(200)
	LDI  R31,HIGH(200)
	ST   -Y,R31
	ST   -Y,R30
	RET

;OPTIMIZER ADDED SUBROUTINE, CALLED 2 TIMES, CODE SIZE REDUCTION:9 WORDS
SUBOPT_0x6:
	LDS  R30,_halfN
	LDS  R31,_halfN+1
	ST   -Y,R31
	ST   -Y,R30
	CALL _Melodyplay
	LDI  R30,LOW(211)
	LDI  R31,HIGH(211)
	ST   -Y,R31
	ST   -Y,R30
	RJMP SUBOPT_0x4

;OPTIMIZER ADDED SUBROUTINE, CALLED 6 TIMES, CODE SIZE REDUCTION:17 WORDS
SUBOPT_0x7:
	LDI  R30,LOW(214)
	LDI  R31,HIGH(214)
	ST   -Y,R31
	ST   -Y,R30
	RJMP SUBOPT_0x4

;OPTIMIZER ADDED SUBROUTINE, CALLED 7 TIMES, CODE SIZE REDUCTION:9 WORDS
SUBOPT_0x8:
	LDI  R30,LOW(218)
	LDI  R31,HIGH(218)
	ST   -Y,R31
	ST   -Y,R30
	RET

;OPTIMIZER ADDED SUBROUTINE, CALLED 2 TIMES, CODE SIZE REDUCTION:5 WORDS
SUBOPT_0x9:
	LDS  R30,_halfN
	LDS  R31,_halfN+1
	ST   -Y,R31
	ST   -Y,R30
	CALL _Melodyplay
	RJMP SUBOPT_0x8

;OPTIMIZER ADDED SUBROUTINE, CALLED 3 TIMES, CODE SIZE REDUCTION:5 WORDS
SUBOPT_0xA:
	LDI  R30,LOW(222)
	LDI  R31,HIGH(222)
	ST   -Y,R31
	ST   -Y,R30
	RJMP SUBOPT_0x4

;OPTIMIZER ADDED SUBROUTINE, CALLED 5 TIMES, CODE SIZE REDUCTION:13 WORDS
SUBOPT_0xB:
	LDI  R30,LOW(211)
	LDI  R31,HIGH(211)
	ST   -Y,R31
	ST   -Y,R30
	RJMP SUBOPT_0x4

;OPTIMIZER ADDED SUBROUTINE, CALLED 2 TIMES, CODE SIZE REDUCTION:9 WORDS
SUBOPT_0xC:
	LDS  R30,_halfN
	LDS  R31,_halfN+1
	ST   -Y,R31
	ST   -Y,R30
	CALL _Melodyplay
	LDI  R30,LOW(226)
	LDI  R31,HIGH(226)
	ST   -Y,R31
	ST   -Y,R30
	RJMP SUBOPT_0x4

;OPTIMIZER ADDED SUBROUTINE, CALLED 2 TIMES, CODE SIZE REDUCTION:1 WORDS
SUBOPT_0xD:
	LDI  R30,LOW(216)
	LDI  R31,HIGH(216)
	ST   -Y,R31
	ST   -Y,R30
	RJMP SUBOPT_0x4

;OPTIMIZER ADDED SUBROUTINE, CALLED 4 TIMES, CODE SIZE REDUCTION:9 WORDS
SUBOPT_0xE:
	ST   -Y,R31
	ST   -Y,R30
	LDS  R30,_halfN
	LDS  R31,_halfN+1
	RET

;OPTIMIZER ADDED SUBROUTINE, CALLED 2 TIMES, CODE SIZE REDUCTION:1 WORDS
SUBOPT_0xF:
	LDI  R30,LOW(206)
	LDI  R31,HIGH(206)
	ST   -Y,R31
	ST   -Y,R30
	RJMP SUBOPT_0x4

;OPTIMIZER ADDED SUBROUTINE, CALLED 2 TIMES, CODE SIZE REDUCTION:1 WORDS
SUBOPT_0x10:
	ST   -Y,R31
	ST   -Y,R30
	CALL _Melodyplay
	RJMP SUBOPT_0x5

;OPTIMIZER ADDED SUBROUTINE, CALLED 3 TIMES, CODE SIZE REDUCTION:17 WORDS
SUBOPT_0x11:
	ST   -Y,R31
	ST   -Y,R30
	CALL _Melodyplay
	LDI  R30,LOW(222)
	LDI  R31,HIGH(222)
	ST   -Y,R31
	ST   -Y,R30
	LDS  R30,_eighthN
	LDS  R31,_eighthN+1
	RET

;OPTIMIZER ADDED SUBROUTINE, CALLED 4 TIMES, CODE SIZE REDUCTION:6 WORDS
SUBOPT_0x12:
	LDI  R31,0
	ASR  R31
	ROR  R30
	RET

;OPTIMIZER ADDED SUBROUTINE, CALLED 4 TIMES, CODE SIZE REDUCTION:21 WORDS
SUBOPT_0x13:
	CALL _i2c_start
	LDI  R30,LOW(208)
	ST   -Y,R30
	CALL _i2c_write
	LDD  R30,Y+1
	ST   -Y,R30
	JMP  _i2c_write

;OPTIMIZER ADDED SUBROUTINE, CALLED 72 TIMES, CODE SIZE REDUCTION:352 WORDS
SUBOPT_0x14:
	LDI  R27,0
	LDI  R30,LOW(10)
	LDI  R31,HIGH(10)
	CALL __DIVW21
	RET

;OPTIMIZER ADDED SUBROUTINE, CALLED 72 TIMES, CODE SIZE REDUCTION:210 WORDS
SUBOPT_0x15:
	CLR  R27
	LDI  R30,LOW(10)
	LDI  R31,HIGH(10)
	CALL __MODW21
	RET

;OPTIMIZER ADDED SUBROUTINE, CALLED 2 TIMES, CODE SIZE REDUCTION:9 WORDS
SUBOPT_0x16:
	CALL _i2c_start
	LDI  R30,LOW(209)
	ST   -Y,R30
	CALL _i2c_write
	LDI  R30,LOW(0)
	ST   -Y,R30
	CALL _i2c_read
	MOV  R17,R30
	CALL _i2c_stop
	MOV  R30,R17
	RET

;OPTIMIZER ADDED SUBROUTINE, CALLED 385 TIMES, CODE SIZE REDUCTION:765 WORDS
SUBOPT_0x17:
	MOV  R30,R17
	LDI  R31,0
	RET

;OPTIMIZER ADDED SUBROUTINE, CALLED 2 TIMES, CODE SIZE REDUCTION:1 WORDS
SUBOPT_0x18:
	LDI  R31,0
	CPI  R30,LOW(0x1)
	LDI  R26,HIGH(0x1)
	CPC  R31,R26
	RET

;OPTIMIZER ADDED SUBROUTINE, CALLED 142 TIMES, CODE SIZE REDUCTION:279 WORDS
SUBOPT_0x19:
	MOV  R30,R19
	LDI  R31,0
	RET

;OPTIMIZER ADDED SUBROUTINE, CALLED 123 TIMES, CODE SIZE REDUCTION:241 WORDS
SUBOPT_0x1A:
	CALL __SWAPW12
	SUB  R30,R26
	SBC  R31,R27
	RET

;OPTIMIZER ADDED SUBROUTINE, CALLED 89 TIMES, CODE SIZE REDUCTION:173 WORDS
SUBOPT_0x1B:
	CALL __LSLW3
	SUBI R30,LOW(-_ma)
	SBCI R31,HIGH(-_ma)
	RET

;OPTIMIZER ADDED SUBROUTINE, CALLED 50 TIMES, CODE SIZE REDUCTION:95 WORDS
SUBOPT_0x1C:
	MOV  R30,R16
	LDI  R31,0
	RET

;OPTIMIZER ADDED SUBROUTINE, CALLED 10 TIMES, CODE SIZE REDUCTION:15 WORDS
SUBOPT_0x1D:
	MOVW R26,R30
	CLR  R30
	ADD  R26,R16
	ADC  R27,R30
	RET

;OPTIMIZER ADDED SUBROUTINE, CALLED 36 TIMES, CODE SIZE REDUCTION:172 WORDS
SUBOPT_0x1E:
	CALL __LSLW4
	SUBI R30,LOW(-_so*2)
	SBCI R31,HIGH(-_so*2)
	MOVW R26,R30
	RJMP SUBOPT_0x17

;OPTIMIZER ADDED SUBROUTINE, CALLED 7 TIMES, CODE SIZE REDUCTION:33 WORDS
SUBOPT_0x1F:
	SBIW R30,1
	ADD  R30,R26
	ADC  R31,R27
	LPM  R30,Z
	MOVW R26,R22
	ST   X,R30
	RJMP SUBOPT_0x17

;OPTIMIZER ADDED SUBROUTINE, CALLED 16 TIMES, CODE SIZE REDUCTION:42 WORDS
SUBOPT_0x20:
	SBIW R30,1
	CALL __LSLW3
	__ADDW1MN _ma,1
	RET

;OPTIMIZER ADDED SUBROUTINE, CALLED 11 TIMES, CODE SIZE REDUCTION:17 WORDS
SUBOPT_0x21:
	SBIW R30,1
	MOVW R22,R30
	CALL __LSLW3
	RET

;OPTIMIZER ADDED SUBROUTINE, CALLED 2 TIMES, CODE SIZE REDUCTION:5 WORDS
SUBOPT_0x22:
	MOVW R0,R30
	__POINTW1FN _so,160
	ADD  R30,R22
	ADC  R31,R23
	LPM  R30,Z
	MOVW R26,R0
	ST   X,R30
	RJMP SUBOPT_0x17

;OPTIMIZER ADDED SUBROUTINE, CALLED 20 TIMES, CODE SIZE REDUCTION:54 WORDS
SUBOPT_0x23:
	SBIW R30,1
	CALL __LSLW3
	__ADDW1MN _ma,3
	RET

;OPTIMIZER ADDED SUBROUTINE, CALLED 3 TIMES, CODE SIZE REDUCTION:1 WORDS
SUBOPT_0x24:
	MOVW R22,R30
	MOV  R26,R14
	RJMP SUBOPT_0x14

;OPTIMIZER ADDED SUBROUTINE, CALLED 21 TIMES, CODE SIZE REDUCTION:57 WORDS
SUBOPT_0x25:
	SBIW R30,1
	CALL __LSLW3
	__ADDW1MN _ma,4
	RET

;OPTIMIZER ADDED SUBROUTINE, CALLED 3 TIMES, CODE SIZE REDUCTION:1 WORDS
SUBOPT_0x26:
	MOVW R22,R30
	MOV  R26,R14
	RJMP SUBOPT_0x15

;OPTIMIZER ADDED SUBROUTINE, CALLED 38 TIMES, CODE SIZE REDUCTION:108 WORDS
SUBOPT_0x27:
	SBIW R30,1
	CALL __LSLW3
	__ADDW1MN _ma,6
	RET

;OPTIMIZER ADDED SUBROUTINE, CALLED 4 TIMES, CODE SIZE REDUCTION:3 WORDS
SUBOPT_0x28:
	MOVW R22,R30
	MOV  R26,R13
	RJMP SUBOPT_0x14

;OPTIMIZER ADDED SUBROUTINE, CALLED 46 TIMES, CODE SIZE REDUCTION:132 WORDS
SUBOPT_0x29:
	SBIW R30,1
	CALL __LSLW3
	__ADDW1MN _ma,7
	RET

;OPTIMIZER ADDED SUBROUTINE, CALLED 4 TIMES, CODE SIZE REDUCTION:3 WORDS
SUBOPT_0x2A:
	MOVW R22,R30
	MOV  R26,R13
	RJMP SUBOPT_0x15

;OPTIMIZER ADDED SUBROUTINE, CALLED 3 TIMES, CODE SIZE REDUCTION:5 WORDS
SUBOPT_0x2B:
	SBIW R30,1
	ADD  R30,R26
	ADC  R31,R27
	LPM  R30,Z
	MOVW R26,R22
	ST   X,R30
	RET

;OPTIMIZER ADDED SUBROUTINE, CALLED 5 TIMES, CODE SIZE REDUCTION:5 WORDS
SUBOPT_0x2C:
	CALL __SAVELOCR4
	LDI  R30,LOW(0)
	OUT  0x1D,R30
	RET

;OPTIMIZER ADDED SUBROUTINE, CALLED 8 TIMES, CODE SIZE REDUCTION:67 WORDS
SUBOPT_0x2D:
	CALL __LSLW2
	CALL __LSLW4
	SUBI R30,LOW(-_thanhtruotIphone*2)
	SBCI R31,HIGH(-_thanhtruotIphone*2)
	MOVW R26,R30
	MOVW R30,R22
	CALL __LSLW2
	ADD  R30,R26
	ADC  R31,R27
	RET

;OPTIMIZER ADDED SUBROUTINE, CALLED 6 TIMES, CODE SIZE REDUCTION:17 WORDS
SUBOPT_0x2E:
	LPM  R30,Z
	COM  R30
	MOVW R26,R0
	ST   X,R30
	RJMP SUBOPT_0x17

;OPTIMIZER ADDED SUBROUTINE, CALLED 2 TIMES, CODE SIZE REDUCTION:1 WORDS
SUBOPT_0x2F:
	__GETW1R 11,12
	SBIW R30,2
	__PUTW1R 11,12
	TST  R13
	RET

;OPTIMIZER ADDED SUBROUTINE, CALLED 128 TIMES, CODE SIZE REDUCTION:378 WORDS
SUBOPT_0x30:
	MOVW R26,R30
	MOVW R30,R0
	SBIW R30,2
	CALL __LSLW3
	RET

;OPTIMIZER ADDED SUBROUTINE, CALLED 21 TIMES, CODE SIZE REDUCTION:77 WORDS
SUBOPT_0x31:
	__ADDW1MN _ma,6
	LD   R30,Z
	ST   X,R30
	RJMP SUBOPT_0x17

;OPTIMIZER ADDED SUBROUTINE, CALLED 21 TIMES, CODE SIZE REDUCTION:37 WORDS
SUBOPT_0x32:
	__ADDW1MN _ma,7
	LD   R30,Z
	ST   X,R30
	RET

;OPTIMIZER ADDED SUBROUTINE, CALLED 60 TIMES, CODE SIZE REDUCTION:292 WORDS
SUBOPT_0x33:
	CALL __LSLW4
	SUBI R30,LOW(-_so*2)
	SBCI R31,HIGH(-_so*2)
	MOVW R22,R30
	RJMP SUBOPT_0x19

;OPTIMIZER ADDED SUBROUTINE, CALLED 16 TIMES, CODE SIZE REDUCTION:27 WORDS
SUBOPT_0x34:
	LDI  R26,LOW(15)
	LDI  R27,HIGH(15)
	RJMP SUBOPT_0x1A

;OPTIMIZER ADDED SUBROUTINE, CALLED 3 TIMES, CODE SIZE REDUCTION:9 WORDS
SUBOPT_0x35:
	ADD  R30,R22
	ADC  R31,R23
	LPM  R0,Z
	__PUTBR0MN _ma,6
	MOV  R26,R13
	RJMP SUBOPT_0x15

;OPTIMIZER ADDED SUBROUTINE, CALLED 10 TIMES, CODE SIZE REDUCTION:33 WORDS
SUBOPT_0x36:
	ADD  R30,R22
	ADC  R31,R23
	LPM  R0,Z
	__PUTBR0MN _ma,7
	LDI  R16,LOW(0)
	RET

;OPTIMIZER ADDED SUBROUTINE, CALLED 4 TIMES, CODE SIZE REDUCTION:12 WORDS
SUBOPT_0x37:
	LDI  R30,LOW(255)
	__PUTB1MN _ma,6
	__PUTB1MN _ma,7
	LDI  R16,LOW(0)
	RET

;OPTIMIZER ADDED SUBROUTINE, CALLED 18 TIMES, CODE SIZE REDUCTION:65 WORDS
SUBOPT_0x38:
	__ADDW1MN _ma,3
	LD   R30,Z
	ST   X,R30
	RJMP SUBOPT_0x17

;OPTIMIZER ADDED SUBROUTINE, CALLED 20 TIMES, CODE SIZE REDUCTION:73 WORDS
SUBOPT_0x39:
	__ADDW1MN _ma,4
	LD   R30,Z
	ST   X,R30
	RJMP SUBOPT_0x17

;OPTIMIZER ADDED SUBROUTINE, CALLED 3 TIMES, CODE SIZE REDUCTION:9 WORDS
SUBOPT_0x3A:
	ADD  R30,R22
	ADC  R31,R23
	LPM  R0,Z
	__PUTBR0MN _ma,3
	MOV  R26,R14
	RJMP SUBOPT_0x15

;OPTIMIZER ADDED SUBROUTINE, CALLED 3 TIMES, CODE SIZE REDUCTION:9 WORDS
SUBOPT_0x3B:
	ADD  R30,R22
	ADC  R31,R23
	LPM  R0,Z
	__PUTBR0MN _ma,4
	MOV  R26,R13
	RJMP SUBOPT_0x14

;OPTIMIZER ADDED SUBROUTINE, CALLED 2 TIMES, CODE SIZE REDUCTION:3 WORDS
SUBOPT_0x3C:
	LDI  R30,LOW(255)
	__PUTB1MN _ma,3
	__PUTB1MN _ma,4
	RJMP SUBOPT_0x37

;OPTIMIZER ADDED SUBROUTINE, CALLED 14 TIMES, CODE SIZE REDUCTION:23 WORDS
SUBOPT_0x3D:
	MOVW R0,R30
	SBIW R30,1
	RJMP SUBOPT_0x1B

;OPTIMIZER ADDED SUBROUTINE, CALLED 14 TIMES, CODE SIZE REDUCTION:36 WORDS
SUBOPT_0x3E:
	MOVW R26,R30
	MOVW R30,R0
	SBIW R30,2
	RJMP SUBOPT_0x1B

;OPTIMIZER ADDED SUBROUTINE, CALLED 67 TIMES, CODE SIZE REDUCTION:129 WORDS
SUBOPT_0x3F:
	LD   R30,Z
	ST   X,R30
	RJMP SUBOPT_0x17

;OPTIMIZER ADDED SUBROUTINE, CALLED 15 TIMES, CODE SIZE REDUCTION:25 WORDS
SUBOPT_0x40:
	__ADDW1MN _ma,1
	RJMP SUBOPT_0x3F

;OPTIMIZER ADDED SUBROUTINE, CALLED 5 TIMES, CODE SIZE REDUCTION:5 WORDS
SUBOPT_0x41:
	LDS  R26,_nam
	RJMP SUBOPT_0x14

;OPTIMIZER ADDED SUBROUTINE, CALLED 11 TIMES, CODE SIZE REDUCTION:27 WORDS
SUBOPT_0x42:
	ADD  R30,R22
	ADC  R31,R23
	LPM  R0,Z
	STS  _ma,R0
	RET

;OPTIMIZER ADDED SUBROUTINE, CALLED 5 TIMES, CODE SIZE REDUCTION:5 WORDS
SUBOPT_0x43:
	LDS  R26,_nam
	RJMP SUBOPT_0x15

;OPTIMIZER ADDED SUBROUTINE, CALLED 11 TIMES, CODE SIZE REDUCTION:27 WORDS
SUBOPT_0x44:
	ADD  R30,R22
	ADC  R31,R23
	LPM  R0,Z
	__PUTBR0MN _ma,1
	RET

;OPTIMIZER ADDED SUBROUTINE, CALLED 2 TIMES, CODE SIZE REDUCTION:1 WORDS
SUBOPT_0x45:
	LDI  R30,LOW(255)
	STS  _ma,R30
	__PUTB1MN _ma,1
	RET

;OPTIMIZER ADDED SUBROUTINE, CALLED 2 TIMES, CODE SIZE REDUCTION:3 WORDS
SUBOPT_0x46:
	CLR  R27
	LDI  R30,LOW(2)
	LDI  R31,HIGH(2)
	CALL __MODW21
	CPI  R30,LOW(0x1)
	LDI  R26,HIGH(0x1)
	CPC  R31,R26
	RET

;OPTIMIZER ADDED SUBROUTINE, CALLED 2 TIMES, CODE SIZE REDUCTION:5 WORDS
SUBOPT_0x47:
	MOVW R22,R30
	LD   R1,Z
	MOV  R30,R16
	LDI  R26,LOW(128)
	CALL __LSRB12
	COM  R30
	AND  R30,R1
	MOVW R26,R22
	ST   X,R30
	RET

;OPTIMIZER ADDED SUBROUTINE, CALLED 2 TIMES, CODE SIZE REDUCTION:4 WORDS
SUBOPT_0x48:
	CALL _hienthi
	CALL _hienthi
	CALL _hienthi
	CALL _hienthi
	LDI  R17,LOW(1)
	RET

;OPTIMIZER ADDED SUBROUTINE, CALLED 2 TIMES, CODE SIZE REDUCTION:8 WORDS
SUBOPT_0x49:
	SBIW R30,1
	ADD  R30,R26
	ADC  R31,R27
	LPM  R1,Z
	MOV  R30,R16
	LDI  R26,LOW(128)
	CALL __LSRB12
	AND  R30,R1
	OR   R30,R22
	__GETW2R 23,24
	ST   X,R30
	RET

;OPTIMIZER ADDED SUBROUTINE, CALLED 9 TIMES, CODE SIZE REDUCTION:13 WORDS
SUBOPT_0x4A:
	LDI  R26,LOW(0)
	STD  Z+0,R26
	RJMP SUBOPT_0x17

;OPTIMIZER ADDED SUBROUTINE, CALLED 3 TIMES, CODE SIZE REDUCTION:7 WORDS
SUBOPT_0x4B:
	SBIW R30,2
	CALL __LSLW3
	__ADDW1MN _ma,6
	RJMP SUBOPT_0x28

;OPTIMIZER ADDED SUBROUTINE, CALLED 12 TIMES, CODE SIZE REDUCTION:41 WORDS
SUBOPT_0x4C:
	SBIW R30,2
	ADD  R30,R26
	ADC  R31,R27
	LPM  R30,Z
	MOVW R26,R22
	ST   X,R30
	RET

;OPTIMIZER ADDED SUBROUTINE, CALLED 3 TIMES, CODE SIZE REDUCTION:7 WORDS
SUBOPT_0x4D:
	SBIW R30,2
	CALL __LSLW3
	__ADDW1MN _ma,7
	RJMP SUBOPT_0x2A

;OPTIMIZER ADDED SUBROUTINE, CALLED 3 TIMES, CODE SIZE REDUCTION:9 WORDS
SUBOPT_0x4E:
	CALL _hienthi
	CALL _hienthi
	CALL _hienthi
	JMP  _hienthi

;OPTIMIZER ADDED SUBROUTINE, CALLED 2 TIMES, CODE SIZE REDUCTION:1 WORDS
SUBOPT_0x4F:
	LDI  R30,LOW(255)
	__PUTB1MN _ma,126
	__PUTB1MN _ma,127
	RET

;OPTIMIZER ADDED SUBROUTINE, CALLED 3 TIMES, CODE SIZE REDUCTION:3 WORDS
SUBOPT_0x50:
	SBIW R30,2
	CALL __LSLW3
	__ADDW1MN _ma,3
	RET

;OPTIMIZER ADDED SUBROUTINE, CALLED 3 TIMES, CODE SIZE REDUCTION:3 WORDS
SUBOPT_0x51:
	SBIW R30,2
	CALL __LSLW3
	__ADDW1MN _ma,4
	RET

;OPTIMIZER ADDED SUBROUTINE, CALLED 2 TIMES, CODE SIZE REDUCTION:9 WORDS
SUBOPT_0x52:
	LDD  R30,Y+6
	LDI  R26,LOW(_count_year*2)
	LDI  R27,HIGH(_count_year*2)
	LDI  R31,0
	LSL  R30
	ROL  R31
	ADD  R30,R26
	ADC  R31,R27
	CALL __GETW1PF
	MOVW R22,R30
	LDD  R30,Y+7
	RET

;OPTIMIZER ADDED SUBROUTINE, CALLED 4 TIMES, CODE SIZE REDUCTION:3 WORDS
SUBOPT_0x53:
	LSL  R30
	ROL  R31
	ADD  R30,R26
	ADC  R31,R27
	RET

;OPTIMIZER ADDED SUBROUTINE, CALLED 4 TIMES, CODE SIZE REDUCTION:3 WORDS
SUBOPT_0x54:
	LDD  R30,Y+8
	LDI  R31,0
	RET

;OPTIMIZER ADDED SUBROUTINE, CALLED 3 TIMES, CODE SIZE REDUCTION:1 WORDS
SUBOPT_0x55:
	SUBI R30,LOW(-_lich*2)
	SBCI R31,HIGH(-_lich*2)
	LPM  R26,Z
	CPI  R26,LOW(0x11)
	RET

;OPTIMIZER ADDED SUBROUTINE, CALLED 4 TIMES, CODE SIZE REDUCTION:3 WORDS
SUBOPT_0x56:
	MOVW R30,R18
	SBIW R30,1
	SUBI R30,LOW(-_lich*2)
	SBCI R31,HIGH(-_lich*2)
	RET

;OPTIMIZER ADDED SUBROUTINE, CALLED 2 TIMES, CODE SIZE REDUCTION:1 WORDS
SUBOPT_0x57:
	LPM  R30,Z
	LDI  R31,0
	SBIW R30,16
	MOV  R20,R30
	RET

;OPTIMIZER ADDED SUBROUTINE, CALLED 10 TIMES, CODE SIZE REDUCTION:33 WORDS
SUBOPT_0x58:
	SBIW R30,1
	ADD  R30,R26
	ADC  R31,R27
	MOVW R0,R30
	RJMP SUBOPT_0x17

;OPTIMIZER ADDED SUBROUTINE, CALLED 9 TIMES, CODE SIZE REDUCTION:53 WORDS
SUBOPT_0x59:
	SBIW R30,1
	ADD  R26,R30
	ADC  R27,R31
	LD   R30,X
	LSL  R30
	MOVW R26,R0
	ST   X,R30
	RJMP SUBOPT_0x17

;OPTIMIZER ADDED SUBROUTINE, CALLED 10 TIMES, CODE SIZE REDUCTION:33 WORDS
SUBOPT_0x5A:
	SBIW R30,1
	ADD  R30,R26
	ADC  R31,R27
	MOVW R22,R30
	RJMP SUBOPT_0x17

;OPTIMIZER ADDED SUBROUTINE, CALLED 10 TIMES, CODE SIZE REDUCTION:33 WORDS
SUBOPT_0x5B:
	SBIW R30,1
	ADD  R26,R30
	ADC  R27,R31
	LD   R0,X
	RJMP SUBOPT_0x17

;OPTIMIZER ADDED SUBROUTINE, CALLED 9 TIMES, CODE SIZE REDUCTION:77 WORDS
SUBOPT_0x5C:
	LD   R30,X
	ANDI R30,LOW(0x80)
	LDI  R31,0
	CALL __ASRW3
	CALL __ASRW4
	OR   R30,R0
	MOVW R26,R22
	ST   X,R30
	RET

;OPTIMIZER ADDED SUBROUTINE, CALLED 9 TIMES, CODE SIZE REDUCTION:13 WORDS
SUBOPT_0x5D:
	MOVW R26,R30
	LD   R30,X
	LSL  R30
	ST   X,R30
	RET

;OPTIMIZER ADDED SUBROUTINE, CALLED 3 TIMES, CODE SIZE REDUCTION:13 WORDS
SUBOPT_0x5E:
	SBIW R30,1
	MOVW R26,R30
	CALL __LSLW3
	__ADDW1MN _ma,7
	__PUTW1R 23,24
	LD   R22,Z
	MOVW R30,R26
	RET

;OPTIMIZER ADDED SUBROUTINE, CALLED 8 TIMES, CODE SIZE REDUCTION:123 WORDS
SUBOPT_0x5F:
	LPM  R1,Z
	MOV  R30,R3
	LDI  R26,LOW(128)
	CALL __LSRB12
	AND  R30,R1
	LDI  R31,0
	MOVW R26,R30
	LDI  R30,LOW(7)
	LDI  R31,HIGH(7)
	SUB  R30,R3
	SBC  R31,R4
	CALL __ASRW12
	OR   R30,R22
	__GETW2R 23,24
	ST   X,R30
	RET

;OPTIMIZER ADDED SUBROUTINE, CALLED 10 TIMES, CODE SIZE REDUCTION:51 WORDS
SUBOPT_0x60:
	LDI  R30,LOW(1)
	LDI  R31,HIGH(1)
	__ADDWRR 3,4,30,31
	LDI  R30,LOW(8)
	LDI  R31,HIGH(8)
	CP   R30,R3
	CPC  R31,R4
	RET

;OPTIMIZER ADDED SUBROUTINE, CALLED 10 TIMES, CODE SIZE REDUCTION:33 WORDS
SUBOPT_0x61:
	CLR  R3
	CLR  R4
	LDI  R30,LOW(1)
	LDI  R31,HIGH(1)
	__ADDWRR 5,6,30,31
	RET

;OPTIMIZER ADDED SUBROUTINE, CALLED 6 TIMES, CODE SIZE REDUCTION:82 WORDS
SUBOPT_0x62:
	SBIW R30,1
	MOVW R0,R30
	CALL __LSLW3
	__ADDW1MN _ma,7
	__PUTW1R 23,24
	LD   R22,Z
	__GETW1R 7,8
	CALL __LSLW4
	SUBI R30,LOW(-_chu*2)
	SBCI R31,HIGH(-_chu*2)
	ADD  R30,R0
	ADC  R31,R1
	RJMP SUBOPT_0x5F

;OPTIMIZER ADDED SUBROUTINE, CALLED 43 TIMES, CODE SIZE REDUCTION:291 WORDS
SUBOPT_0x63:
	SBIW R30,1
	MOVW R0,R30
	CALL __LSLW3
	__ADDW1MN _ma,7
	__PUTW1R 23,24
	LD   R22,Z
	RET

;OPTIMIZER ADDED SUBROUTINE, CALLED 17 TIMES, CODE SIZE REDUCTION:77 WORDS
SUBOPT_0x64:
	LDI  R31,0
	CALL __LSLW4
	SUBI R30,LOW(-_chu*2)
	SBCI R31,HIGH(-_chu*2)
	RET

;OPTIMIZER ADDED SUBROUTINE, CALLED 4 TIMES, CODE SIZE REDUCTION:3 WORDS
SUBOPT_0x65:
	LDS  R26,_ngay
	RJMP SUBOPT_0x14

;OPTIMIZER ADDED SUBROUTINE, CALLED 4 TIMES, CODE SIZE REDUCTION:3 WORDS
SUBOPT_0x66:
	LDS  R26,_ngay
	RJMP SUBOPT_0x15

;OPTIMIZER ADDED SUBROUTINE, CALLED 4 TIMES, CODE SIZE REDUCTION:3 WORDS
SUBOPT_0x67:
	LDS  R26,_thang
	RJMP SUBOPT_0x14

;OPTIMIZER ADDED SUBROUTINE, CALLED 4 TIMES, CODE SIZE REDUCTION:3 WORDS
SUBOPT_0x68:
	LDS  R26,_thang
	RJMP SUBOPT_0x15

;OPTIMIZER ADDED SUBROUTINE, CALLED 2 TIMES, CODE SIZE REDUCTION:4 WORDS
SUBOPT_0x69:
	__PUTW1R 23,24
	LD   R22,Z
	LDS  R26,_nhietdo
	LDS  R27,_nhietdo+1
	LDI  R30,LOW(10)
	LDI  R31,HIGH(10)
	RET

;OPTIMIZER ADDED SUBROUTINE, CALLED 27 TIMES, CODE SIZE REDUCTION:49 WORDS
SUBOPT_0x6A:
	CALL __LSLW4
	SUBI R30,LOW(-_so*2)
	SBCI R31,HIGH(-_so*2)
	RET

;OPTIMIZER ADDED SUBROUTINE, CALLED 96 TIMES, CODE SIZE REDUCTION:187 WORDS
SUBOPT_0x6B:
	LDI  R26,LOW(17)
	LDI  R27,HIGH(17)
	RJMP SUBOPT_0x1A

;OPTIMIZER ADDED SUBROUTINE, CALLED 11 TIMES, CODE SIZE REDUCTION:27 WORDS
SUBOPT_0x6C:
	ADD  R30,R22
	ADC  R31,R23
	LPM  R0,Z
	__PUTBR0MN _ma,2
	RET

;OPTIMIZER ADDED SUBROUTINE, CALLED 31 TIMES, CODE SIZE REDUCTION:57 WORDS
SUBOPT_0x6D:
	MOVW R0,R30
	SBIW R30,1
	CALL __LSLW3
	RET

;OPTIMIZER ADDED SUBROUTINE, CALLED 11 TIMES, CODE SIZE REDUCTION:17 WORDS
SUBOPT_0x6E:
	__ADDW1MN _ma,2
	RJMP SUBOPT_0x30

;OPTIMIZER ADDED SUBROUTINE, CALLED 10 TIMES, CODE SIZE REDUCTION:24 WORDS
SUBOPT_0x6F:
	ADD  R30,R22
	ADC  R31,R23
	LPM  R0,Z
	__PUTBR0MN _ma,3
	RET

;OPTIMIZER ADDED SUBROUTINE, CALLED 3 TIMES, CODE SIZE REDUCTION:1 WORDS
SUBOPT_0x70:
	__POINTWRFN 22,23,_chu,128
	RJMP SUBOPT_0x19

;OPTIMIZER ADDED SUBROUTINE, CALLED 11 TIMES, CODE SIZE REDUCTION:27 WORDS
SUBOPT_0x71:
	ADD  R30,R22
	ADC  R31,R23
	LPM  R0,Z
	__PUTBR0MN _ma,4
	RET

;OPTIMIZER ADDED SUBROUTINE, CALLED 3 TIMES, CODE SIZE REDUCTION:1 WORDS
SUBOPT_0x72:
	__POINTWRFN 22,23,_chu,304
	RJMP SUBOPT_0x19

;OPTIMIZER ADDED SUBROUTINE, CALLED 19 TIMES, CODE SIZE REDUCTION:51 WORDS
SUBOPT_0x73:
	ADD  R30,R22
	ADC  R31,R23
	LPM  R0,Z
	__PUTBR0MN _ma,5
	RET

;OPTIMIZER ADDED SUBROUTINE, CALLED 12 TIMES, CODE SIZE REDUCTION:41 WORDS
SUBOPT_0x74:
	ADD  R30,R22
	ADC  R31,R23
	LPM  R0,Z
	__PUTBR0MN _ma,6
	LDI  R16,LOW(0)
	RET

;OPTIMIZER ADDED SUBROUTINE, CALLED 20 TIMES, CODE SIZE REDUCTION:35 WORDS
SUBOPT_0x75:
	__ADDW1MN _ma,5
	RJMP SUBOPT_0x30

;OPTIMIZER ADDED SUBROUTINE, CALLED 26 TIMES, CODE SIZE REDUCTION:47 WORDS
SUBOPT_0x76:
	__ADDW1MN _ma,5
	RJMP SUBOPT_0x3F

;OPTIMIZER ADDED SUBROUTINE, CALLED 20 TIMES, CODE SIZE REDUCTION:35 WORDS
SUBOPT_0x77:
	__ADDW1MN _ma,6
	LD   R30,Z
	ST   X,R30
	RET

;OPTIMIZER ADDED SUBROUTINE, CALLED 4 TIMES, CODE SIZE REDUCTION:3 WORDS
SUBOPT_0x78:
	__POINTWRFN 22,23,_chu,96
	RJMP SUBOPT_0x19

;OPTIMIZER ADDED SUBROUTINE, CALLED 8 TIMES, CODE SIZE REDUCTION:11 WORDS
SUBOPT_0x79:
	__POINTWRFN 22,23,_so,160
	RJMP SUBOPT_0x19

;OPTIMIZER ADDED SUBROUTINE, CALLED 11 TIMES, CODE SIZE REDUCTION:17 WORDS
SUBOPT_0x7A:
	__ADDW1MN _ma,2
	RJMP SUBOPT_0x3F

;OPTIMIZER ADDED SUBROUTINE, CALLED 16 TIMES, CODE SIZE REDUCTION:57 WORDS
SUBOPT_0x7B:
	CALL _hienthi
	LDI  R26,0
	SBIC 0x6,0
	LDI  R26,1
	CPI  R26,LOW(0x0)
	RET

;OPTIMIZER ADDED SUBROUTINE, CALLED 12 TIMES, CODE SIZE REDUCTION:41 WORDS
SUBOPT_0x7C:
	LDI  R30,LOW(0)
	OUT  0x1D,R30
	STS  _nut,R30
	LDI  R17,LOW(0)
	RET

;OPTIMIZER ADDED SUBROUTINE, CALLED 4 TIMES, CODE SIZE REDUCTION:3 WORDS
SUBOPT_0x7D:
	__ADDW1MN _ma,5
	LD   R30,Z
	ST   X,R30
	RET

;OPTIMIZER ADDED SUBROUTINE, CALLED 32 TIMES, CODE SIZE REDUCTION:59 WORDS
SUBOPT_0x7E:
	LDI  R26,0
	SBIC 0x6,1
	LDI  R26,1
	CPI  R26,LOW(0x0)
	RET

;OPTIMIZER ADDED SUBROUTINE, CALLED 9 TIMES, CODE SIZE REDUCTION:21 WORDS
SUBOPT_0x7F:
	ADD  R30,R26
	ADC  R31,R27
	LPM  R0,Z
	__PUTBR0MN _ma,125
	RET

;OPTIMIZER ADDED SUBROUTINE, CALLED 2 TIMES, CODE SIZE REDUCTION:7 WORDS
SUBOPT_0x80:
	MOVW R0,R30
	CALL __LSLW3
	__ADDW1MN _ma,4
	MOVW R26,R30
	MOVW R30,R0
	ADIW R30,1
	CALL __LSLW3
	RJMP SUBOPT_0x39

;OPTIMIZER ADDED SUBROUTINE, CALLED 10 TIMES, CODE SIZE REDUCTION:69 WORDS
SUBOPT_0x81:
	MOVW R0,R30
	CALL __LSLW3
	__ADDW1MN _ma,5
	MOVW R26,R30
	MOVW R30,R0
	ADIW R30,1
	CALL __LSLW3
	RET

;OPTIMIZER ADDED SUBROUTINE, CALLED 29 TIMES, CODE SIZE REDUCTION:53 WORDS
SUBOPT_0x82:
	LDI  R26,0
	SBIC 0x6,2
	LDI  R26,1
	CPI  R26,LOW(0x0)
	RET

;OPTIMIZER ADDED SUBROUTINE, CALLED 22 TIMES, CODE SIZE REDUCTION:60 WORDS
SUBOPT_0x83:
	LDI  R30,LOW(0)
	OUT  0x1D,R30
	STS  _nut,R30
	RET

;OPTIMIZER ADDED SUBROUTINE, CALLED 4 TIMES, CODE SIZE REDUCTION:6 WORDS
SUBOPT_0x84:
	LPM  R0,Z
	__PUTBR0MN _ma,2
	LDI  R30,LOW(1)
	OUT  0x1D,R30
	RET

;OPTIMIZER ADDED SUBROUTINE, CALLED 8 TIMES, CODE SIZE REDUCTION:25 WORDS
SUBOPT_0x85:
	ADD  R30,R26
	ADC  R31,R27
	LPM  R0,Z
	__PUTBR0MN _ma,126
	LDI  R16,LOW(0)
	RET

;OPTIMIZER ADDED SUBROUTINE, CALLED 8 TIMES, CODE SIZE REDUCTION:67 WORDS
SUBOPT_0x86:
	MOVW R0,R30
	CALL __LSLW3
	__ADDW1MN _ma,6
	MOVW R26,R30
	MOVW R30,R0
	ADIW R30,1
	CALL __LSLW3
	RJMP SUBOPT_0x77

;OPTIMIZER ADDED SUBROUTINE, CALLED 3 TIMES, CODE SIZE REDUCTION:1 WORDS
SUBOPT_0x87:
	__POINTWRFN 22,23,_chu,208
	RJMP SUBOPT_0x19

;OPTIMIZER ADDED SUBROUTINE, CALLED 2 TIMES, CODE SIZE REDUCTION:2 WORDS
SUBOPT_0x88:
	ADD  R30,R22
	ADC  R31,R23
	LPM  R0,Z
	__PUTBR0MN _ma,6
	RJMP SUBOPT_0x68

;OPTIMIZER ADDED SUBROUTINE, CALLED 3 TIMES, CODE SIZE REDUCTION:3 WORDS
SUBOPT_0x89:
	ADD  R30,R26
	ADC  R31,R27
	LPM  R0,Z
	__PUTBR0MN _ma,126
	RET

;OPTIMIZER ADDED SUBROUTINE, CALLED 3 TIMES, CODE SIZE REDUCTION:5 WORDS
SUBOPT_0x8A:
	ADD  R30,R26
	ADC  R31,R27
	LPM  R0,Z
	__PUTBR0MN _ma,127
	LDI  R16,LOW(0)
	RET

;OPTIMIZER ADDED SUBROUTINE, CALLED 3 TIMES, CODE SIZE REDUCTION:17 WORDS
SUBOPT_0x8B:
	MOVW R0,R30
	CALL __LSLW3
	__ADDW1MN _ma,6
	MOVW R26,R30
	MOVW R30,R0
	ADIW R30,1
	CALL __LSLW3
	RJMP SUBOPT_0x31

;OPTIMIZER ADDED SUBROUTINE, CALLED 3 TIMES, CODE SIZE REDUCTION:17 WORDS
SUBOPT_0x8C:
	MOVW R0,R30
	CALL __LSLW3
	__ADDW1MN _ma,7
	MOVW R26,R30
	MOVW R30,R0
	ADIW R30,1
	CALL __LSLW3
	RJMP SUBOPT_0x32

;OPTIMIZER ADDED SUBROUTINE, CALLED 2 TIMES, CODE SIZE REDUCTION:2 WORDS
SUBOPT_0x8D:
	ADD  R30,R22
	ADC  R31,R23
	LPM  R0,Z
	__PUTBR0MN _ma,6
	RJMP SUBOPT_0x43

;OPTIMIZER ADDED SUBROUTINE, CALLED 3 TIMES, CODE SIZE REDUCTION:3 WORDS
SUBOPT_0x8E:
	LDS  R30,_thang
	LDI  R31,0
	RET

;OPTIMIZER ADDED SUBROUTINE, CALLED 2 TIMES, CODE SIZE REDUCTION:14 WORDS
SUBOPT_0x8F:
	LDI  R26,LOW(3)
	LDI  R27,HIGH(3)
	CALL __MULW12
	MOVW R26,R30
	LDI  R30,LOW(5)
	LDI  R31,HIGH(5)
	CALL __DIVW21
	MOVW R26,R22
	ADD  R26,R30
	ADC  R27,R31
	LDS  R30,_nam
	LDI  R31,0
	SUBI R30,LOW(-2000)
	SBCI R31,HIGH(-2000)
	RET

;OPTIMIZER ADDED SUBROUTINE, CALLED 2 TIMES, CODE SIZE REDUCTION:5 WORDS
SUBOPT_0x90:
	ADD  R30,R26
	ADC  R31,R27
	MOVW R22,R30
	LDS  R30,_nam
	LDI  R31,0
	SUBI R30,LOW(-2000)
	SBCI R31,HIGH(-2000)
	RET

;OPTIMIZER ADDED SUBROUTINE, CALLED 6 TIMES, CODE SIZE REDUCTION:47 WORDS
SUBOPT_0x91:
	LDI  R30,LOW(19)
	STS  _t1,R30
	LDI  R30,LOW(7)
	STS  _t2,R30
	LDI  R30,LOW(33)
	STS  _t3,R30
	LDI  R30,LOW(29)
	STS  _t4,R30
	RET

;OPTIMIZER ADDED SUBROUTINE, CALLED 3 TIMES, CODE SIZE REDUCTION:3 WORDS
SUBOPT_0x92:
	MOVW R26,R30
	MOVW R30,R0
	ADIW R30,1
	CALL __LSLW3
	RET

;OPTIMIZER ADDED SUBROUTINE, CALLED 7 TIMES, CODE SIZE REDUCTION:15 WORDS
SUBOPT_0x93:
	LDI  R30,LOW(0)
	ST   -Y,R30
	CALL _docds
	MOV  R13,R30
	RET

;OPTIMIZER ADDED SUBROUTINE, CALLED 3 TIMES, CODE SIZE REDUCTION:3 WORDS
SUBOPT_0x94:
	LDI  R30,LOW(1)
	ST   -Y,R30
	CALL _docds
	MOV  R14,R30
	RET

;OPTIMIZER ADDED SUBROUTINE, CALLED 3 TIMES, CODE SIZE REDUCTION:3 WORDS
SUBOPT_0x95:
	LDI  R30,LOW(2)
	ST   -Y,R30
	CALL _docds
	MOV  R9,R30
	RET

;OPTIMIZER ADDED SUBROUTINE, CALLED 2 TIMES, CODE SIZE REDUCTION:2 WORDS
SUBOPT_0x96:
	CALL __LSLW4
	SUBI R30,LOW(-_chu*2)
	SBCI R31,HIGH(-_chu*2)
	MOVW R22,R30
	RJMP SUBOPT_0x19

;OPTIMIZER ADDED SUBROUTINE, CALLED 3 TIMES, CODE SIZE REDUCTION:5 WORDS
SUBOPT_0x97:
	ADD  R30,R22
	ADC  R31,R23
	LPM  R0,Z
	__PUTBR0MN _ma,6
	LDD  R30,Y+4
	RET

;OPTIMIZER ADDED SUBROUTINE, CALLED 2 TIMES, CODE SIZE REDUCTION:1 WORDS
SUBOPT_0x98:
	LDD  R30,Y+7
	LDI  R31,0
	RJMP SUBOPT_0x33

;OPTIMIZER ADDED SUBROUTINE, CALLED 2 TIMES, CODE SIZE REDUCTION:1 WORDS
SUBOPT_0x99:
	LDD  R30,Y+6
	LDI  R31,0
	RJMP SUBOPT_0x33

;OPTIMIZER ADDED SUBROUTINE, CALLED 2 TIMES, CODE SIZE REDUCTION:1 WORDS
SUBOPT_0x9A:
	LDD  R30,Y+5
	LDI  R31,0
	RJMP SUBOPT_0x33

;OPTIMIZER ADDED SUBROUTINE, CALLED 5 TIMES, CODE SIZE REDUCTION:9 WORDS
SUBOPT_0x9B:
	LDI  R31,0
	RJMP SUBOPT_0x33

;OPTIMIZER ADDED SUBROUTINE, CALLED 8 TIMES, CODE SIZE REDUCTION:18 WORDS
SUBOPT_0x9C:
	ST   -Y,R30
	LDI  R30,LOW(11)
	ST   -Y,R30
	JMP  _xuongchuluccaidatds

;OPTIMIZER ADDED SUBROUTINE, CALLED 2 TIMES, CODE SIZE REDUCTION:3 WORDS
SUBOPT_0x9D:
	LDI  R30,LOW(24)
	ST   -Y,R30
	ST   -Y,R10
	CALL _ghidulieu
	CALL _laydosang
	LDI  R17,LOW(1)
	RET

;OPTIMIZER ADDED SUBROUTINE, CALLED 2 TIMES, CODE SIZE REDUCTION:4 WORDS
SUBOPT_0x9E:
	SBIW R30,1
	CALL __LSLW3
	__ADDW1MN _ma,5
	MOVW R22,R30
	MOV  R26,R10
	RJMP SUBOPT_0x14

;OPTIMIZER ADDED SUBROUTINE, CALLED 2 TIMES, CODE SIZE REDUCTION:1 WORDS
SUBOPT_0x9F:
	LDI  R30,LOW(32)
	ST   -Y,R30
	LDI  R30,LOW(0)
	ST   -Y,R30
	JMP  _ghidulieu

;OPTIMIZER ADDED SUBROUTINE, CALLED 10 TIMES, CODE SIZE REDUCTION:24 WORDS
SUBOPT_0xA0:
	ST   -Y,R30
	LDI  R30,LOW(0)
	ST   -Y,R30
	JMP  _ghidulieu

;OPTIMIZER ADDED SUBROUTINE, CALLED 11 TIMES, CODE SIZE REDUCTION:57 WORDS
SUBOPT_0xA1:
	LDI  R30,LOW(2)
	ST   -Y,R30
	LDI  R30,LOW(35)
	ST   -Y,R30
	LDI  R30,LOW(8)
	ST   -Y,R30
	LDI  R30,LOW(29)
	ST   -Y,R30
	RET

;OPTIMIZER ADDED SUBROUTINE, CALLED 5 TIMES, CODE SIZE REDUCTION:5 WORDS
SUBOPT_0xA2:
	LDI  R30,LOW(29)
	ST   -Y,R30
	ST   -Y,R30
	RET

;OPTIMIZER ADDED SUBROUTINE, CALLED 4 TIMES, CODE SIZE REDUCTION:12 WORDS
SUBOPT_0xA3:
	CALL _hienthi
	LDS  R30,_lenhIRcu
	LDS  R26,_lenhIR
	CP   R30,R26
	RET

;OPTIMIZER ADDED SUBROUTINE, CALLED 3 TIMES, CODE SIZE REDUCTION:1 WORDS
SUBOPT_0xA4:
	LDS  R30,_lenhIR
	STS  _lenhIRcu,R30
	RET

;OPTIMIZER ADDED SUBROUTINE, CALLED 3 TIMES, CODE SIZE REDUCTION:9 WORDS
SUBOPT_0xA5:
	ST   -Y,R30
	LDS  R30,_lenhIR
	ST   -Y,R30
	CALL _ghidulieu
	RJMP SUBOPT_0xA1

;OPTIMIZER ADDED SUBROUTINE, CALLED 2 TIMES, CODE SIZE REDUCTION:2 WORDS
SUBOPT_0xA6:
	LDI  R30,LOW(20)
	ST   -Y,R30
	CALL _docds
	LDS  R26,_lenhIR
	CP   R30,R26
	RET

;OPTIMIZER ADDED SUBROUTINE, CALLED 3 TIMES, CODE SIZE REDUCTION:1 WORDS
SUBOPT_0xA7:
	ST   -Y,R30
	CALL _docdulieu
	CPI  R30,LOW(0x3C)
	RET

;OPTIMIZER ADDED SUBROUTINE, CALLED 5 TIMES, CODE SIZE REDUCTION:5 WORDS
SUBOPT_0xA8:
	ST   -Y,R30
	CALL _docdulieu
	CPI  R30,LOW(0x2)
	RET

;OPTIMIZER ADDED SUBROUTINE, CALLED 4 TIMES, CODE SIZE REDUCTION:6 WORDS
SUBOPT_0xA9:
	ST   -Y,R30
	LDI  R30,LOW(29)
	ST   -Y,R30
	LDI  R30,LOW(11)
	ST   -Y,R30
	RET

;OPTIMIZER ADDED SUBROUTINE, CALLED 3 TIMES, CODE SIZE REDUCTION:1 WORDS
SUBOPT_0xAA:
	LDS  R26,_giobt
	RJMP SUBOPT_0x14

;OPTIMIZER ADDED SUBROUTINE, CALLED 3 TIMES, CODE SIZE REDUCTION:1 WORDS
SUBOPT_0xAB:
	LDS  R26,_giobt
	RJMP SUBOPT_0x15

;OPTIMIZER ADDED SUBROUTINE, CALLED 3 TIMES, CODE SIZE REDUCTION:1 WORDS
SUBOPT_0xAC:
	LDS  R26,_phutbt
	RJMP SUBOPT_0x14

;OPTIMIZER ADDED SUBROUTINE, CALLED 3 TIMES, CODE SIZE REDUCTION:1 WORDS
SUBOPT_0xAD:
	LDS  R26,_phutbt
	RJMP SUBOPT_0x15

;OPTIMIZER ADDED SUBROUTINE, CALLED 2 TIMES, CODE SIZE REDUCTION:1 WORDS
SUBOPT_0xAE:
	LDI  R30,LOW(500)
	LDI  R31,HIGH(500)
	ST   -Y,R31
	ST   -Y,R30
	JMP  _delay_ms

;OPTIMIZER ADDED SUBROUTINE, CALLED 3 TIMES, CODE SIZE REDUCTION:5 WORDS
SUBOPT_0xAF:
	LDI  R30,LOW(1)
	ST   -Y,R30
	LDI  R30,LOW(46)
	ST   -Y,R30
	RJMP SUBOPT_0xA2

;OPTIMIZER ADDED SUBROUTINE, CALLED 5 TIMES, CODE SIZE REDUCTION:9 WORDS
SUBOPT_0xB0:
	LDS  R30,_am
	LDI  R31,0
	RET

;OPTIMIZER ADDED SUBROUTINE, CALLED 3 TIMES, CODE SIZE REDUCTION:11 WORDS
SUBOPT_0xB1:
	LDI  R26,LOW(13)
	LDI  R27,HIGH(13)
	SUB  R26,R30
	SBC  R27,R31
	ST   -Y,R26
	LDS  R26,_bugio
	RJMP SUBOPT_0x14

;OPTIMIZER ADDED SUBROUTINE, CALLED 3 TIMES, CODE SIZE REDUCTION:3 WORDS
SUBOPT_0xB2:
	ST   -Y,R30
	LDS  R26,_bugio
	RJMP SUBOPT_0x15

;OPTIMIZER ADDED SUBROUTINE, CALLED 3 TIMES, CODE SIZE REDUCTION:9 WORDS
SUBOPT_0xB3:
	__POINTW1FN _chu,736
	LPM  R0,Z
	__PUTBR0MN _ma,1
	LDI  R30,LOW(255)
	__PUTB1MN _ma,2
	RET

;OPTIMIZER ADDED SUBROUTINE, CALLED 6 TIMES, CODE SIZE REDUCTION:7 WORDS
SUBOPT_0xB4:
	LDI  R26,LOW(1)
	LDI  R27,HIGH(1)
	RJMP SUBOPT_0x1A

;OPTIMIZER ADDED SUBROUTINE, CALLED 2 TIMES, CODE SIZE REDUCTION:4 WORDS
SUBOPT_0xB5:
	MOV  R26,R13
	CLR  R27
	LDS  R30,_bugio
	LDI  R31,0
	ADD  R26,R30
	ADC  R27,R31
	RET

;OPTIMIZER ADDED SUBROUTINE, CALLED 3 TIMES, CODE SIZE REDUCTION:1 WORDS
SUBOPT_0xB6:
	LDS  R26,_ngaysinhnhat
	RJMP SUBOPT_0x14

;OPTIMIZER ADDED SUBROUTINE, CALLED 3 TIMES, CODE SIZE REDUCTION:1 WORDS
SUBOPT_0xB7:
	LDS  R26,_ngaysinhnhat
	RJMP SUBOPT_0x15

;OPTIMIZER ADDED SUBROUTINE, CALLED 3 TIMES, CODE SIZE REDUCTION:1 WORDS
SUBOPT_0xB8:
	LDS  R26,_thangsinhnhat
	RJMP SUBOPT_0x14

;OPTIMIZER ADDED SUBROUTINE, CALLED 3 TIMES, CODE SIZE REDUCTION:1 WORDS
SUBOPT_0xB9:
	LDS  R26,_thangsinhnhat
	RJMP SUBOPT_0x15

;OPTIMIZER ADDED SUBROUTINE, CALLED 3 TIMES, CODE SIZE REDUCTION:19 WORDS
SUBOPT_0xBA:
	LDI  R30,LOW(11)
	ST   -Y,R30
	ST   -Y,R30
	ST   -Y,R30
	CALL _xuongchuluccaidatds
	__POINTW1FN _chu,432
	LPM  R0,Z
	__PUTBR0MN _ma,1
	RET

;OPTIMIZER ADDED SUBROUTINE, CALLED 4 TIMES, CODE SIZE REDUCTION:3 WORDS
SUBOPT_0xBB:
	LDI  R26,0
	SBIC 0x6,0
	LDI  R26,1
	CPI  R26,LOW(0x0)
	RET

;OPTIMIZER ADDED SUBROUTINE, CALLED 4 TIMES, CODE SIZE REDUCTION:6 WORDS
SUBOPT_0xBC:
	LDI  R31,0
	RJMP SUBOPT_0xB4

;OPTIMIZER ADDED SUBROUTINE, CALLED 2 TIMES, CODE SIZE REDUCTION:1 WORDS
SUBOPT_0xBD:
	ST   -Y,R30
	LDI  R30,LOW(10)
	ST   -Y,R30
	MOV  R26,R14
	RJMP SUBOPT_0x14

;OPTIMIZER ADDED SUBROUTINE, CALLED 2 TIMES, CODE SIZE REDUCTION:1 WORDS
SUBOPT_0xBE:
	ST   -Y,R30
	LDI  R30,LOW(10)
	ST   -Y,R30
	MOV  R26,R13
	RJMP SUBOPT_0x14

;OPTIMIZER ADDED SUBROUTINE, CALLED 2 TIMES, CODE SIZE REDUCTION:1 WORDS
SUBOPT_0xBF:
	ST   -Y,R30
	CALL _xuongsosaucaidat
	LDI  R30,LOW(255)
	__PUTB1MN _ma,1
	RET

;OPTIMIZER ADDED SUBROUTINE, CALLED 5 TIMES, CODE SIZE REDUCTION:13 WORDS
SUBOPT_0xC0:
	CLR  R3
	CLR  R4
	CLR  R5
	CLR  R6
	RJMP SUBOPT_0x82

;OPTIMIZER ADDED SUBROUTINE, CALLED 2 TIMES, CODE SIZE REDUCTION:6 WORDS
SUBOPT_0xC1:
	ST   -Y,R30
	CALL _xuongchuluccaidat
	__POINTW1FN _chu,560
	LPM  R0,Z
	__PUTBR0MN _ma,1
	LDI  R30,LOW(255)
	__PUTB1MN _ma,2
	RET

;OPTIMIZER ADDED SUBROUTINE, CALLED 2 TIMES, CODE SIZE REDUCTION:3 WORDS
SUBOPT_0xC2:
	LDS  R30,_giatri
	LDS  R31,_giatri+1
	LDS  R22,_giatri+2
	LDS  R23,_giatri+3
	RET

;OPTIMIZER ADDED SUBROUTINE, CALLED 2 TIMES, CODE SIZE REDUCTION:3 WORDS
SUBOPT_0xC3:
	STS  _giatri,R30
	STS  _giatri+1,R31
	STS  _giatri+2,R22
	STS  _giatri+3,R23
	RET


	.CSEG
	.equ __i2c_dir=__i2c_port-1
	.equ __i2c_pin=__i2c_port-2
_i2c_init:
	cbi  __i2c_port,__scl_bit
	cbi  __i2c_port,__sda_bit
	sbi  __i2c_dir,__scl_bit
	cbi  __i2c_dir,__sda_bit
	rjmp __i2c_delay2
_i2c_start:
	cbi  __i2c_dir,__sda_bit
	cbi  __i2c_dir,__scl_bit
	clr  r30
	nop
	sbis __i2c_pin,__sda_bit
	ret
	sbis __i2c_pin,__scl_bit
	ret
	rcall __i2c_delay1
	sbi  __i2c_dir,__sda_bit
	rcall __i2c_delay1
	sbi  __i2c_dir,__scl_bit
	ldi  r30,1
__i2c_delay1:
	ldi  r22,27
	rjmp __i2c_delay2l
_i2c_stop:
	sbi  __i2c_dir,__sda_bit
	sbi  __i2c_dir,__scl_bit
	rcall __i2c_delay2
	cbi  __i2c_dir,__scl_bit
	rcall __i2c_delay1
	cbi  __i2c_dir,__sda_bit
__i2c_delay2:
	ldi  r22,53
__i2c_delay2l:
	dec  r22
	brne __i2c_delay2l
	ret
_i2c_read:
	ldi  r23,8
__i2c_read0:
	cbi  __i2c_dir,__scl_bit
	rcall __i2c_delay1
__i2c_read3:
	sbis __i2c_pin,__scl_bit
	rjmp __i2c_read3
	rcall __i2c_delay1
	clc
	sbic __i2c_pin,__sda_bit
	sec
	sbi  __i2c_dir,__scl_bit
	rcall __i2c_delay2
	rol  r30
	dec  r23
	brne __i2c_read0
	ld   r23,y+
	tst  r23
	brne __i2c_read1
	cbi  __i2c_dir,__sda_bit
	rjmp __i2c_read2
__i2c_read1:
	sbi  __i2c_dir,__sda_bit
__i2c_read2:
	rcall __i2c_delay1
	cbi  __i2c_dir,__scl_bit
	rcall __i2c_delay2
	sbi  __i2c_dir,__scl_bit
	rcall __i2c_delay1
	cbi  __i2c_dir,__sda_bit
	rjmp __i2c_delay1

_i2c_write:
	ld   r30,y+
	ldi  r23,8
__i2c_write0:
	lsl  r30
	brcc __i2c_write1
	cbi  __i2c_dir,__sda_bit
	rjmp __i2c_write2
__i2c_write1:
	sbi  __i2c_dir,__sda_bit
__i2c_write2:
	rcall __i2c_delay2
	cbi  __i2c_dir,__scl_bit
	rcall __i2c_delay1
__i2c_write3:
	sbis __i2c_pin,__scl_bit
	rjmp __i2c_write3
	rcall __i2c_delay1
	sbi  __i2c_dir,__scl_bit
	dec  r23
	brne __i2c_write0
	cbi  __i2c_dir,__sda_bit
	rcall __i2c_delay1
	cbi  __i2c_dir,__scl_bit
	rcall __i2c_delay2
	ldi  r30,1
	sbic __i2c_pin,__sda_bit
	clr  r30
	sbi  __i2c_dir,__scl_bit
	rjmp __i2c_delay1

_delay_ms:
	ld   r30,y+
	ld   r31,y+
	adiw r30,0
	breq __delay_ms1
__delay_ms0:
	__DELAY_USW 0xFA0
	wdr
	sbiw r30,1
	brne __delay_ms0
__delay_ms1:
	ret

__ANEGW1:
	NEG  R31
	NEG  R30
	SBCI R31,0
	RET

__LSLB12:
	TST  R30
	MOV  R0,R30
	MOV  R30,R26
	BREQ __LSLB12R
__LSLB12L:
	LSL  R30
	DEC  R0
	BRNE __LSLB12L
__LSLB12R:
	RET

__LSRB12:
	TST  R30
	MOV  R0,R30
	MOV  R30,R26
	BREQ __LSRB12R
__LSRB12L:
	LSR  R30
	DEC  R0
	BRNE __LSRB12L
__LSRB12R:
	RET

__ASRW12:
	TST  R30
	MOV  R0,R30
	MOVW R30,R26
	BREQ __ASRW12R
__ASRW12L:
	ASR  R31
	ROR  R30
	DEC  R0
	BRNE __ASRW12L
__ASRW12R:
	RET

__LSLW4:
	LSL  R30
	ROL  R31
__LSLW3:
	LSL  R30
	ROL  R31
__LSLW2:
	LSL  R30
	ROL  R31
	LSL  R30
	ROL  R31
	RET

__ASRW4:
	ASR  R31
	ROR  R30
__ASRW3:
	ASR  R31
	ROR  R30
__ASRW2:
	ASR  R31
	ROR  R30
	ASR  R31
	ROR  R30
	RET

__LSRW4:
	LSR  R31
	ROR  R30
__LSRW3:
	LSR  R31
	ROR  R30
__LSRW2:
	LSR  R31
	ROR  R30
	LSR  R31
	ROR  R30
	RET

__LSLD1:
	LSL  R30
	ROL  R31
	ROL  R22
	ROL  R23
	RET

__MULW12U:
	MUL  R31,R26
	MOV  R31,R0
	MUL  R30,R27
	ADD  R31,R0
	MUL  R30,R26
	MOV  R30,R0
	ADD  R31,R1
	RET

__MULB1W2U:
	MOV  R22,R30
	MUL  R22,R26
	MOVW R30,R0
	MUL  R22,R27
	ADD  R31,R0
	RET

__MULW12:
	RCALL __CHKSIGNW
	RCALL __MULW12U
	BRTC __MULW121
	RCALL __ANEGW1
__MULW121:
	RET

__DIVW21U:
	CLR  R0
	CLR  R1
	LDI  R25,16
__DIVW21U1:
	LSL  R26
	ROL  R27
	ROL  R0
	ROL  R1
	SUB  R0,R30
	SBC  R1,R31
	BRCC __DIVW21U2
	ADD  R0,R30
	ADC  R1,R31
	RJMP __DIVW21U3
__DIVW21U2:
	SBR  R26,1
__DIVW21U3:
	DEC  R25
	BRNE __DIVW21U1
	MOVW R30,R26
	MOVW R26,R0
	RET

__DIVW21:
	RCALL __CHKSIGNW
	RCALL __DIVW21U
	BRTC __DIVW211
	RCALL __ANEGW1
__DIVW211:
	RET

__MODW21U:
	RCALL __DIVW21U
	MOVW R30,R26
	RET

__MODW21:
	CLT
	SBRS R27,7
	RJMP __MODW211
	COM  R26
	COM  R27
	ADIW R26,1
	SET
__MODW211:
	SBRC R31,7
	RCALL __ANEGW1
	RCALL __DIVW21U
	MOVW R30,R26
	BRTC __MODW212
	RCALL __ANEGW1
__MODW212:
	RET

__CHKSIGNW:
	CLT
	SBRS R31,7
	RJMP __CHKSW1
	RCALL __ANEGW1
	SET
__CHKSW1:
	SBRS R27,7
	RJMP __CHKSW2
	COM  R26
	COM  R27
	ADIW R26,1
	BLD  R0,0
	INC  R0
	BST  R0,0
__CHKSW2:
	RET

__GETW1PF:
	LPM  R0,Z+
	LPM  R31,Z
	MOV  R30,R0
	RET

__GETW2PF:
	LPM  R26,Z+
	LPM  R27,Z
	RET

__SWAPW12:
	MOV  R1,R27
	MOV  R27,R31
	MOV  R31,R1

__SWAPB12:
	MOV  R1,R26
	MOV  R26,R30
	MOV  R30,R1
	RET

__CPW02:
	CLR  R0
	CP   R0,R26
	CPC  R0,R27
	RET

__SAVELOCR6:
	ST   -Y,R21
__SAVELOCR5:
	ST   -Y,R20
__SAVELOCR4:
	ST   -Y,R19
__SAVELOCR3:
	ST   -Y,R18
__SAVELOCR2:
	ST   -Y,R17
	ST   -Y,R16
	RET

__LOADLOCR6:
	LDD  R21,Y+5
__LOADLOCR5:
	LDD  R20,Y+4
__LOADLOCR4:
	LDD  R19,Y+3
__LOADLOCR3:
	LDD  R18,Y+2
__LOADLOCR2:
	LDD  R17,Y+1
	LD   R16,Y
	RET

;END OF CODE MARKER
__END_OF_CODE:
